
target/riscv64gc-unknown-none-elf/release/ch2_write1：     文件格式 elf64-littleriscv

Contents of section .text:
 80400000 411106e4 17450000 1305c501 97450000  A....E.......E..
 80400010 93854501 63f9a500 13861500 23800500  ..E.c.......#...
 80400020 b285e36b a6fe9700 0000e780 40030125  ...k........@..%
 80400030 9308d005 81450146 73000000 17350000  .....E.Fs....5..
 80400040 130545f0 17360000 130646f2 ed459700  ..E..6....F..E..
 80400050 0000e780 a0580000 82805571 86e5a2e1  .....X....Uq....
 80400060 26fd4af9 97350000 938545cb 1305204d  &.J..5....E... M
 80400070 65469700 0000e780 6047fd55 aaf86312  eF......`G.U..c.
 80400080 b5182000 1305c401 59468145 97300000  .. .....YF.E.0..
 80400090 e780c0c2 17350000 1305c5d5 83459501  .....5.......E..
 804000a0 03468501 8306b501 0347a501 a205d18d  .F.......G......
 804000b0 13968600 598e4206 d18d2ed0 83451500  ....Y.B......E..
 804000c0 03460500 83463500 03472500 a205d18d  .F...F5..G%.....
 804000d0 13968600 598e4206 d18d0346 55008346  ....Y.B....FU..F
 804000e0 45000347 75008347 65002206 558e9316  E..Gu..Ge.".U...
 804000f0 8700dd8e c206558e 0216d18d 2ee48345  ......U........E
 80400100 95000346 85008346 b5000347 a500a205  ...F...F...G....
 80400110 d18d1396 8600598e 4206d18d 0346d500  ......Y.B....F..
 80400120 8346c500 0347f500 8347e500 2206558e  .F...G...G..".U.
 80400130 93168700 dd8ec206 558e0216 d18d2ee8  ........U.......
 80400140 83451501 03460501 83463501 03472501  .E...F...F5..G%.
 80400150 a205d18d 13968600 598e4206 d18d0346  ........Y.B....F
 80400160 55018346 45010347 75010345 65012206  U..FE..Gu..Ee.".
 80400170 558e9316 8700558d 4205518d 02154d8d  U.....U.B.Q...M.
 80400180 2aec0801 7146a285 97100000 e7806064  *...qF........`d
 80400190 0a658545 630eb50a 2a64ca64 0545a285  .e.Ec...*d.d.E..
 804001a0 26869700 0000e780 6034aae0 a6e46319  &.......`4....c.
 804001b0 950c1145 63759510 05490545 15469544  ...Ecu...I.E.F.D
 804001c0 a2859700 0000e780 6032aae4 63149510  ........`2..c...
 804001d0 17350000 130585cb 2ae14ae5 02e91735  .5......*.J....5
 804001e0 00001305 a5cb2af1 02f50801 97000000  ......*.........
 804001f0 e7808029 01454a79 ea740e64 ae606961  ...).EJy.t.d.`ia
 80400200 82808818 aafc1735 00001305 a5b3aae8  .......5........
 80400210 a8182ae1 17050000 1305e510 2ae58c08  ..*.........*...
 80400220 2ee92aed 17350000 1305c5b6 2ae40d45  ..*..5......*..E
 80400230 2ae802ec 08012af4 09452af8 97350000  *.....*..E*..5..
 80400240 9385c5b9 28009700 0000e780 e03f0000  ....(........?..
 80400250 4a65aa65 aaecaee8 17350000 130505a7  Je.e.....5......
 80400260 97360000 938686a9 17370000 130787ba  .6.......7......
 80400270 90089305 b0029700 0000e780 20300000  ............ 0..
 80400280 8800aaf8 a800aafc 8818aae8 17050000  ................
 80400290 13056509 aaecac18 aef0aaf4 17350000  ..e..........5..
 804002a0 130545af 2ae10d45 2ae502e9 88082af1  ..E.*..E*.....*.
 804002b0 09452af5 97350000 938545b7 a9a81736  .E*..5....E....6
 804002c0 00001306 26b81545 a6859710 0000e780  ....&..E........
 804002d0 40480000 a800aaf8 17350000 130505a7  @H.......5......
 804002e0 aafc8818 aae81705 00001305 c503aaec  ................
 804002f0 ac18aef0 aaf41735 00001305 a5a92ae1  .......5......*.
 80400300 0d452ae5 02e98808 2af10945 2af59735  .E*.....*..E*..5
 80400310 00009385 a5b40801 97000000 e780c032  ...............2
 80400320 00000111 06ec22e8 26e40461 2e842e85  ......".&..a....
 80400330 97100000 e780c003 19c92685 a285a264  ..........&....d
 80400340 4264e260 05611723 00006700 43c62285  Bd.`.a.#..g.C.".
 80400350 97100000 e7806002 19c92685 a285a264  ......`...&....d
 80400360 4264e260 05611723 00006700 43cc2685  Bd.`.a.#..g.C.&.
 80400370 a285a264 4264e260 05611723 00006700  ...dBd.`.a.#..g.
 80400380 c3fb8280 41111b85 05001306 000802c6  ....A...........
 80400390 6376c500 2306b100 054641a8 1bd5b500  cv..#....FA.....
 804003a0 19ed13d5 65001365 050c2306 a10013f5  ....e..e..#.....
 804003b0 f5031365 0508a306 a1000946 bda01bd5  ...e.......F....
 804003c0 05011de5 1bd5c500 1365050e 2306a100  .........e..#...
 804003d0 1bd56500 1375f503 13650508 a306a100  ..e..u...e......
 804003e0 13f5f503 13650508 2307a100 0d4635a8  .....e..#....F5.
 804003f0 1bd52501 1365050f 2306a100 1bd5c500  ..%..e..#.......
 80400400 1375f503 13650508 a306a100 1bd56500  .u...e........e.
 80400410 1375f503 13650508 2307a100 13f5f503  .u...e..#.......
 80400420 13650508 a307a100 11466c00 05459308  .e.......Fl..E..
 80400430 00047300 00000145 41018280 397106fc  ..s....EA...9q..
 80400440 08619075 94712ae0 32f836f4 886d9069  .a.u.q*.2.6..m.i
 80400450 94658c61 2af032ec 36e82ee4 97350000  .e.a*.2.6....5..
 80400460 9385c5a3 0a853000 97100000 e7808080  ......0.........
 80400470 e2702161 82800545 93080004 73000000  .p!a...E....s...
 80400480 01458280 397106fc 0c751071 340036e0  .E..9q...u.q4.6.
 80400490 2ef832f4 0c6d1069 14650861 2ef032ec  ..2..m.i.e.a..2.
 804004a0 36e82ae4 97350000 9385459f 0a853000  6.*..5....E...0.
 804004b0 97000000 e780007c 01e5e270 21618280  .......|...p!a..
 804004c0 17350000 130585a0 97360000 938606a3  .5.......6......
 804004d0 17370000 130787a5 30009305 b0029700  .7......0.......
 804004e0 0000e780 a0090000 93080004 73000000  ............s...
 804004f0 82800861 01a08280 5d7186e4 a2e026fc  ...a....]q....&.
 80400500 2e84aa84 97200000 e78060ba 1de50870  ..... ....`....p
 80400510 0c741736 00001306 66a732e4 054632e8  .t.6....f.2..F2.
 80400520 02ec1736 00001306 e6a532f4 02f83000  ...6......2...0.
 80400530 97000000 e7800074 19c50545 e2740664  .......t...E.t.d
 80400540 a6606161 82801385 8400a285 e2740664  .`aa.........t.d
 80400550 a6606161 17230000 670063b5 37f56001  .`aa.#..g.c.7.`.
 80400560 1b057562 36051305 753d3205 130515f8  ..ub6...u=2.....
 80400570 32051305 25f48280 197186fc 2ae42ee8  2...%....q..*...
 80400580 32ec36f0 2800aaec 17250000 1305e53b  2.6.(....%.....;
 80400590 aaf02808 aaf41725 00001305 853aaaf8  ..(....%.....:..
 804005a0 17350000 130585a5 2af40945 2af802fc  .5......*..E*...
 804005b0 ac08aee4 aae82810 ba859700 0000e780  ......(.........
 804005c0 a0080000 08698280 086d8280 10610c65  .....i...m...a.e
 804005d0 32858280 08498280 5d7186e4 2afcaee0  2....I..]q..*...
 804005e0 28182ae4 05452ae8 02ec1735 00001305  (.*..E*....5....
 804005f0 65992af4 02f82800 b2859700 0000e780  e.*...(.........
 80400600 a0040000 597186f4 2ae42ee8 0808aae4  ....Yq..*.......
 80400610 17250000 1305c5ef aae82c00 aeecaaf0  .%........,.....
 80400620 17350000 130505a9 2aec0945 2af002f4  .5......*..E*...
 80400630 ac002efc aae02808 b2859700 0000e780  ......(.........
 80400640 a0000000 797106f4 17360000 13068693  ....yq...6......
 80400650 32e41736 00001306 669c32e8 2aec2ef0  2..6....f.2.*...
 80400660 28009720 0000e780 a0510000 5d7186e4  (.. .....Q..]q..
 80400670 a2e026fc 4af84ef4 52f056ec 5ae85ee4  ..&.J.N.R.V.Z.^.
 80400680 62e07dca b284ae89 2a893d4a a94a130b  b.}.....*.=J.J..
 80400690 f0fb854b 09a8946d ce852286 829679ed  ...K...m.."...y.
 804006a0 818ce289 f1c80335 09010345 050009cd  .......5...E....
 804006b0 83358900 03350900 946d9735 00009385  .5...5...m.5....
 804006c0 e58f1146 82965de9 01442686 29a03386  ...F..]..D&.).3.
 804006d0 844063e9 8404b385 89006360 ca0239c2  .@c.......c`..9.
 804006e0 01463385 8440b386 c50083c6 0600638e  .F3..@........c.
 804006f0 56010506 e319c5fe 35a02945 97100000  V.......5.)E....
 80400700 e780a0f0 63107503 2e863305 86001304  ....c.u...3.....
 80400710 1500e37e 95fa4e95 03450500 e31955fb  ...~..N..E....U.
 80400720 054519a0 01452684 83350901 2380a500  .E...E&..5..#...
 80400730 03350900 83358900 338c8900 e38d84f4  .5...5..3.......
 80400740 637b9404 03060c00 6357cb04 946dce85  c{......cW...m..
 80400750 22868296 05e50305 0c00e343 abf41737  "..........C...7
 80400760 00001307 a79b4e85 a6852286 a6869710  ......N...".....
 80400770 0000e780 e02c0000 014511a0 0545026c  .....,...E...E.l
 80400780 a26b426b e26a027a a2794279 e2740664  .kBk.j.z.yBy.t.d
 80400790 a6606161 82801737 00001307 a7964e85  .`aa...7......N.
 804007a0 a6850146 a2869710 0000e780 60290000  ...F........`)..
 804007b0 357106ed 22e926e5 4ae1cefc d2f8d6f4  5q..".&.J.......
 804007c0 daf02a84 03458500 054b8544 05c12304  ..*..E...K.D..#.
 804007d0 9400a304 64012285 067ba67a 467ae679  ....d."..{.zFz.y
 804007e0 0a69aa64 4a64ea60 0d618280 ba893689  .i.dJd.`.a....6.
 804007f0 328aae8a 08608365 05030346 940093f6  2....`.e...F....
 80400800 45001336 160099e6 45ea9735 00009385  E..6....E..5....
 80400810 b5927da0 19ce0c75 0871946d 97350000  ..}....u.q.m.5..
 80400820 93854591 0d468296 854455f1 08608365  ..E..F...DU..`.e
 80400830 05038544 a30f9100 10711475 32e036e4  ...D.....q.u2.6.
 80400840 1306f101 32e85059 83068503 18611c65  ....2.PY.....a.e
 80400850 03380501 086daec8 b2ca230c d1043af0  .8...m....#...:.
 80400860 3ef442f8 2afc0a85 aae09735 00009385  >.B.*......5....
 80400870 6586aee4 d6855286 97000000 e78040df  e.....R.......@.
 80400880 39f59725 00009385 15770a85 09469700  9..%.....w...F..
 80400890 0000e780 e0dd05fd 03b68901 0c104a85  ..............J.
 804008a0 029615f5 a6650665 946d9735 00009385  .....e.e.m.5....
 804008b0 95880946 829689a8 97350000 9385f587  ...F.....5......
 804008c0 14750871 946e1366 26008296 854401f1  .u.q.n.f&....D..
 804008d0 08600c75 0871946d d6855286 82968544  .`.u.q.m..R....D
 804008e0 e31705ee 08600c75 0871946d 97250000  .....`.u.q.m.%..
 804008f0 93857570 09468296 8544e31a 05ec0c60  ..up.F...D.....`
 80400900 03b68901 4a850296 aa84d1b5 757106e5  ....J.......uq..
 80400910 22e1a6fc caf8cef4 2a840345 05018544  ".......*..E...D
 80400920 79e1b289 2e890860 83650503 106493f6  y......`.e...d..
 80400930 45001336 160099e6 49e69725 00009385  E..6....I..%....
 80400940 b57f61a0 11ce0c75 0871946d 97250000  ..a....u.q.m.%..
 80400950 9385157f 09468296 59e50860 83650503  .....F..Y..`.e..
 80400960 8544a303 91021071 147532e4 36e81306  .D.....q.u2.6...
 80400970 710232ec 50598306 85031861 1c650338  q.2.PY.....a.e.8
 80400980 0501086d aeccb2ce 2300d106 3af43ef8  ...m....#...:.>.
 80400990 42fcaae0 280003b6 8901aae4 17250000  B...(........%..
 804009a0 13054573 aae82c10 4a850296 0dedc665  ..Es..,.J......e
 804009b0 2665946d 97250000 9385f577 09468296  &e.m.%.....w.F..
 804009c0 15a09725 00009385 d5771475 0871946e  ...%.....w.u.q.n
 804009d0 09473306 c7408296 19e50c60 03b68901  .G3..@.....`....
 804009e0 4a850296 aa840864 23089400 050508e4  J......d#.......
 804009f0 2285a679 4679e674 0a64aa60 49618280  "..yFy.t.d.`Ia..
 80400a00 411106e4 2e868125 93060008 02c263fd  A......%......c.
 80400a10 d5004c00 2302c100 05469700 0000e780  ..L.#....F......
 80400a20 20c5a260 41018280 9b55b600 95e54c00   ..`A....U....L.
 80400a30 93566600 93e6060c 2302d100 1376f603  .Vf.....#....v..
 80400a40 13660608 a302c100 09469700 0000e780  .f.......F......
 80400a50 20c2a260 41018280 9b560601 4c008dee   ..`A....V..L...
 80400a60 9b56c600 93e6060e 2302d100 9b566600  .V......#....Vf.
 80400a70 93f6f603 93e60608 a302d100 1376f603  .............v..
 80400a80 13660608 2303c100 0d469700 0000e780  .f..#....F......
 80400a90 20bea260 41018280 9b562601 93e6060f   ..`A....V&.....
 80400aa0 2302d100 9b56c600 93f6f603 93e60608  #....V..........
 80400ab0 a302d100 9b566600 93f6f603 93e60608  .....Vf.........
 80400ac0 2303d100 1376f603 13660608 a303c100  #....v...f......
 80400ad0 11469700 0000e780 a0b9a260 41018280  .F.........`A...
 80400ae0 397106fc 90759471 2ae032f8 36f4886d  9q...u.q*.2.6..m
 80400af0 90699465 8c612af0 32ec36e8 2ee49725  .i.e.a*.2.6....%
 80400b00 00009385 25770a85 30009700 0000e780  ....%w..0.......
 80400b10 6016e270 21618280 08611703 00006700  `..p!a...a....g.
 80400b20 23b54111 06e42e86 08618125 93060008  #.A......a.%....
 80400b30 02c263fd d5004c00 2302c100 05469700  ..c...L.#....F..
 80400b40 0000e780 e0b2a260 41018280 9b55b600  .......`A....U..
 80400b50 95e54c00 93566600 93e6060c 2302d100  ..L..Vf.....#...
 80400b60 1376f603 13660608 a302c100 09469700  .v...f.......F..
 80400b70 0000e780 e0afa260 41018280 9b560601  .......`A....V..
 80400b80 4c008dee 9b56c600 93e6060e 2302d100  L....V......#...
 80400b90 9b566600 93f6f603 93e60608 a302d100  .Vf.............
 80400ba0 1376f603 13660608 2303c100 0d469700  .v...f..#....F..
 80400bb0 0000e780 e0aba260 41018280 9b562601  .......`A....V&.
 80400bc0 93e6060f 2302d100 9b56c600 93f6f603  ....#....V......
 80400bd0 93e60608 a302d100 9b566600 93f6f603  .........Vf.....
 80400be0 93e60608 2303d100 1376f603 13660608  ....#....v...f..
 80400bf0 a303c100 11469700 0000e780 60a7a260  .....F......`..`
 80400c00 41018280 397106fc 08619075 94712ae0  A...9q...a.u.q*.
 80400c10 32f836f4 886d9069 94658c61 2af032ec  2.6..m.i.e.a*.2.
 80400c20 36e82ee4 97250000 9385c564 0a853000  6....%.....d..0.
 80400c30 97000000 e7800004 e2702161 82803971  .........p!a..9q
 80400c40 06fc1075 18719471 8c7532f8 3af4106d  ...u.q.q.u2.:..m
 80400c50 18691c65 086132f0 3aec3ee8 2ae43000  .i.e.a2.:.>.*.0.
 80400c60 36859700 0000e780 e000e270 21618280  6..........p!a..
 80400c70 357106ed 22e926e5 4ae1cefc d2f8d6f4  5q..".&.J.......
 80400c80 daf0deec e2e8e6e4 32840546 161632fc  ........2..F..2.
 80400c90 0d462300 c1040468 02e402ec 2af42ef8  .F#....h....*...
 80400ca0 e9cc106c 83398400 03390400 ce8a63e3  ...l.9...9....c.
 80400cb0 c900b28a 63810a12 83360900 03368900  ....c....6...6..
 80400cc0 986db685 02976316 0512033c 04029384  .m....c....<....
 80400cd0 0403930c 8901130a 8100094b 970b0000  ...........K....
 80400ce0 938b6b81 568403a5 84ff2ade 03850400  ..k.V.....*.....
 80400cf0 2300a104 03a5c4ff 2adc03b6 84fe03b5  #.......*.......
 80400d00 04ff19ca 8145630c 66011205 62950c65  .....Ec.f...b..e
 80400d10 63967501 08610861 854511a0 81452ee4  c.u..a.a.E...E..
 80400d20 2ae803b6 84fd03b5 04fe19ca 8145630c  *............Ec.
 80400d30 66011205 62950c65 63967501 08610861  f...b..ec.u..a.a
 80400d40 854511a0 81452eec 2af003b5 04fd1205  .E...E..*.......
 80400d50 62951065 0861d285 029641ed 7d142dcc  b..e.a....A.}.-.
 80400d60 c2762275 83b58cff 03b60c00 946e9384  .v"u.........n..
 80400d70 8403c10c 829625d9 ada80470 10748339  ......%....p.t.9
 80400d80 84000339 0400ce8a 63e3c900 b28a6384  ...9....c.....c.
 80400d90 0a048336 09000336 8900986d b6850297  ...6...6...m....
 80400da0 29e9a104 130b8901 130a8100 56849060  )...........V..`
 80400db0 03b584ff d2850296 0ded7d14 11ccc276  ..........}....v
 80400dc0 22758335 8bff0336 0b00946e c104410b  "u.5...6...n..A.
 80400dd0 829671dd 39a8814a 63ff3a01 2275c276  ..q.9..Jc.:."u.v
 80400de0 93954a00 3306b900 0c621066 946e8296  ..J.3....b.f.n..
 80400df0 19c10545 11a00145 a66c466c e66b067b  ...E...E.lFl.k.{
 80400e00 a67a467a e6790a69 aa644a64 ea600d61  .zFz.y.i.dJd.`.a
 80400e10 82805971 86f4a2f0 a6eccae8 cee4d2e0  ..Yq............
 80400e20 56fc5af8 5ef462f0 66ec6ae8 6ee4be89  V.Z.^.b.f.j.n...
 80400e30 3a89b68a 2a84b1c9 03650403 93751500  :...*....e...u..
 80400e40 370a1100 99c1130a b002b38c 35019375  7...........5..u
 80400e50 4500a9c5 81456380 0a02d686 32878347  E....Ec.....2..G
 80400e60 07000507 93f7070c 938707f8 93b71700  ................
 80400e70 fd16be95 edf6b386 5c01b38c b640328b  ........\....@2.
 80400e80 0c60854d 6381b503 b1a00365 0403938c  .`.Mc......e....
 80400e90 1900130a d0029375 4500cdfd 014b0c60  .......uE....K.`
 80400ea0 854d6399 b503033d 840063f5 ac032189  .Mc....=..c...!.
 80400eb0 3ded0345 84038545 8d460546 6303d500  =..E...E.F.Fc...
 80400ec0 2a860d8a 33059d41 63c7c50a 45ea2a8c  *...3..Ac...E.*.
 80400ed0 0145c9a0 2285d285 5a86d686 97000000  .E.."...Z.......
 80400ee0 e7804017 0dc16e85 a26d426d e26c027c  ..@...n..mBm.l.|
 80400ef0 a27b427b e27a066a a6694669 e6640674  .{B{.z.j.iFi.d.t
 80400f00 a6706561 82800c74 08709c6d ca854e86  .pea...t.p.m..N.
 80400f10 a26d426d e26c027c a27b427b e27a066a  .mBm.l.|.{B{.z.j
 80400f20 a6694669 e6640674 a6706561 8287836b  .iFi.d.t.pea...k
 80400f30 44031305 0003034c 840348d8 854d230c  D......L..H..M#.
 80400f40 b4032285 d2855a86 d6869700 0000e780  .."...Z.........
 80400f50 601051f9 03458403 85458d46 05466303  `.Q..E...E.F.Fc.
 80400f60 d5002a86 0d8a3305 9d4163cb c50001ee  ..*...3..Ac.....
 80400f70 aa8a0145 41a08d45 6319b600 014c19a8  ...EA..Ec....L..
 80400f80 8d456314 b606814a b5a09305 15000581  .Ec....J........
 80400f90 13dc1500 93041500 fd1481c8 0c740870  .............t.p
 80400fa0 90714c58 02966dd9 85a0836b 44032285  .qLX..m....kD.".
 80400fb0 d2855a86 d6869700 0000e780 a009854d  ..Z............M
 80400fc0 1df10c74 0870946d ca854e86 829601fd  ...t.p.m..N.....
 80400fd0 03390402 00749304 1c00fd14 b5c01070  .9...t.........p
 80400fe0 4a85de85 029675d9 fdbd9305 15000581  J.....u.........
 80400ff0 93da1500 93041500 fd1489c8 0c740870  .............t.p
 80401000 90714c58 02966dd9 854df1bd 0c74036a  .qLX..m..M...t.j
 80401010 44030870 946dca85 4e868296 854de314  D..p.m..N....M..
 80401020 05ec0339 04028339 84029384 1a00fd14  ...9...9........
 80401030 91c803b6 09024a85 d2850296 6dd965b5  ......J.....m.e.
 80401040 814d55b5 814d232a 7403230c 840361bd  .MU..M#*t.#...a.
 80401050 011106ec 22e826e4 4ae01397 05020193  ....".&.J.......
 80401060 b7071100 3689b284 2a846309 f7001074  ....6...*.c....t
 80401070 08701072 0296aa85 054591ed 81cc0c74  .p.r.....E.....t
 80401080 08709c6d a6854a86 0269a264 4264e260  .p.m..J..i.dBd.`
 80401090 05618287 01450269 a2644264 e2600561  .a...E.i.dBd.`.a
 804010a0 82803971 06fc22f8 26f44af0 4eec52e8  ..9q..".&.J.N.R.
 804010b0 56e45ae0 2a8b1469 0861b289 2e899385  V.Z.*..i.a......
 804010c0 f6ff0546 93b51500 6314c500 81e515a2  ...F....c.......
 804010d0 638f0518 83368b01 7d151338 15003307  c....6..}..8..3.
 804010e0 39018145 ddc27d5e 9303000e 1303000f  9..E..}^........
 804010f0 b7081c00 b7021100 4a8515a8 03440600  ........J....D..
 80401100 93041600 937ff403 ca07b3f7 17011314  ................
 80401110 cf001396 6e00c18f 5d8e3366 f6016308  ....n...].3f..c.
 80401120 560c3385 a440fd16 aa952685 a5c26300  V.3..@....&...c.
 80401130 a70c0306 05009304 1500e344 cefe9377  ...........D...w
 80401140 f60f638c e4000346 15009304 2500137f  ..c....F....%...
 80401150 f6032686 e3e777fc 29a0014f 3a86e3e2  ..&...w.)..O:...
 80401160 77fc630c e6000344 06009304 1600937e  w.c....D.......~
 80401170 f4032686 e3e767fa 29a0814e 3a86e3e2  ..&...g.)..N:...
 80401180 67fae31d e6f6814f 41b7ca84 63019706  g......OA...c...
 80401190 03850400 7d566357 a60213b5 150033c6  ....}VcW......3.
 804011a0 35011336 1600518d 19e963fe 35033305  5..6..Q...c.5.3.
 804011b0 b9000305 05001306 00fc6346 c5024a85  ..........cF..J.
 804011c0 0de535a0 13861400 1375f50f 6301e614  ..5......u..c...
 804011d0 83c61400 13862400 93f6f603 9307000e  ......$.........
 804011e0 637df512 5dbf0145 19c12a89 ae896300  c}..]..E..*...c.
 804011f0 08086387 09048145 4e854a86 83460600  ..c....EN.J..F..
 80401200 050693f6 060c9386 06f893b6 16007d15  ..............}.
 80401210 b6956df5 03358b00 b385b940 63f9a504  ..m..5.....@c...
 80401220 81454e86 ca8603c7 06008506 1377070c  .EN..........w..
 80401230 130707f8 13371700 7d16ba95 6df629a0  .....7..}...m.).
 80401240 03358b00 814505c5 83468b03 01478d47  .5...E...F...G.G
 80401250 33863541 6383f600 36879375 37008546  3.5Ac...6..u7..F
 80401260 329563c7 b60285e9 aa8a0145 25a88335  2.c........E%..5
 80401270 8b020335 0b029c6d ca854e86 026ba26a  ...5...m..N..k.j
 80401280 426ae269 0279a274 4274e270 21618287  Bj.i.y.tBt.p!a..
 80401290 0d466394 c500814a 31a09305 15000581  .Fc....J1.......
 804012a0 93da1500 93041500 fd1481cc 83358b02  .............5..
 804012b0 03350b02 90718325 4b030296 75d50549  .5...q.%K...u..I
 804012c0 25a88335 8b02036a 4b030335 0b02946d  %..5...jK..5...m
 804012d0 ca854e86 82960549 05e18339 0b020334  ..N....I...9...4
 804012e0 8b029384 1a00fd14 99c41070 4e85d285  ...........pN...
 804012f0 029675d9 11a00149 4a85026b a26a426a  ..u....IJ..k.jBj
 80401300 e2690279 a2744274 e2702161 82808146  .i.y.tBt.p!a...F
 80401310 3a869307 000ee362 f5e8630d e6008344  :......b..c....D
 80401320 06009307 160013f6 f4039304 000f6379  ..............cy
 80401330 9500a5b5 0146ba87 9304000f e36f95e4  .....F.......o..
 80401340 6387e700 03c70700 1377f703 11a00147  c........w.....G
 80401350 4a05b707 1c007d8d b2061a06 558d518d  J.....}.....U.Q.
 80401360 598d3706 1100e304 c5e805bd 03450503  Y.7..........E..
 80401370 41891181 82800345 05031375 05021581  A......E...u....
 80401380 8280ae86 aa853285 36861703 00006700  ......2.6.....g.
 80401390 83d15971 86f4a2f0 a6eccae8 cee4d2e0  ..Yq............
 804013a0 56fc5af8 5ef462f0 66ec6ae8 6ee42e84  V.Z.^.b.f.j.n...
 804013b0 8c751070 9471aa84 93057002 32858296  .u.p.q....p.2...
 804013c0 0dc10545 a26d426d e26c027c a27b427b  ...E.mBm.l.|.{B{
 804013d0 e27a066a a6694669 e6640674 a6706561  .z.j.iFi.d.t.pea
 804013e0 828083ea 04001305 10028944 634e5501  ...........DcNU.
 804013f0 25456387 aa042945 6387aa04 35456391  %Ec...)Ec...5Ec.
 80401400 aa02930a 200791a0 13052002 638faa02  .... ..... .c...
 80401410 13057002 638baa02 1305c005 6387aa02  ..p.c.......c...
 80401420 56859710 0000e780 e05e631b 05105685  V........^c...V.
 80401430 97100000 e780608e 63040510 854431a0  ......`.c....D1.
 80401440 930a4007 19a0930a e006094a 054b1305  ..@........J.K..
 80401450 10f00215 930bf5ff 294c931c 0b020d4d  ........)L.....M
 80401460 931d1b02 114939a0 85441074 08701072  .....I9..D.t.p.r
 80401470 029621f9 13950402 01916346 ab0049cd  ..!.......cF..I.
 80401480 8144d685 ddb79305 c005e30f 45fd13d5  .D..........E...
 80401490 09021375 f50f634b aa003dcd 63166503  ...u..cK..=.c.e.
 804014a0 b3f97901 8d449305 d007c1b7 6300a505  ..y..D......c...
 804014b0 63162505 33f57901 8d449395 0402b369  c.%.3.y..D.....i
 804014c0 b5009305 500755b7 02661315 26003bd5  ....P.U..f..&.;.
 804014d0 a9003d89 93050003 63648501 93057005  ..=.....cd....p.
 804014e0 aa950dc6 7d1632e0 8d4441b7 33f57901  ....}.2..DA.3.y.
 804014f0 b369b501 8d449305 b00785bf 33f57901  .i...D......3.y.
 80401500 13162b02 b369c500 8d4485b7 33f57901  ..+..i...D..3.y.
 80401510 b3699501 8d4491bf 0c740870 9c719305  .i...D...t.p.q..
 80401520 7002a26d 426de26c 027ca27b 427be27a  p..mBm.l.|.{B{.z
 80401530 066aa669 4669e664 0674a670 65618287  .j.iFi.d.t.pea..
 80401540 13e51a00 93551500 4d8d9355 25004d8d  .....U..M..U%.M.
 80401550 93554500 4d8d9355 85004d8d 93550501  .UE.M..U..M..U..
 80401560 4d8d9355 05024d8d 1345f5ff 93551500  M..U..M..E...U..
 80401570 37565505 1b065655 32061306 56553206  7VU...VU2...VU2.
 80401580 13065655 32061306 5655f18d 0d8db735  ..VU2...VU.....5
 80401590 33039b85 3533b205 93853533 b2059385  3...53....53....
 804015a0 3533b205 93853533 3376b500 09816d8d  53....533v....m.
 804015b0 32959355 45002e95 b7f5f000 9b85150f  2..UE...........
 804015c0 b2059385 f5f0b205 9385150f b2059385  ................
 804015d0 f5f06d8d b7050101 9b851510 c2059385  ..m.............
 804015e0 1510c205 93851510 3305b502 61910115  ........3...a...
 804015f0 1b552500 13457500 2ae01545 0215b3e9  .U%..Eu.*..E....
 80401600 aa008d44 99b54111 06e49386 7500e19a  ...D..A.....u...
 80401610 8d8e1378 f50f8dc6 32856363 d6003685  ...x....2.cc..6.
 80401620 05c18146 3387d500 03470700 6304070d  ...F3....G..c...
 80401630 8506e319 d5fe9308 06ff63f6 a80049a0  ..........c...I.
 80401640 01459308 06ffb706 fffe9b86 f6efc206  .E..............
 80401650 9386f6ef c2069382 f6efc176 9b861610  ...........v....
 80401660 c2069386 1610c206 93861610 be061383  ................
 80401670 0608b706 01019b86 1610c206 93861610  ................
 80401680 c2069386 1610b303 d802b387 a5009863  ...............c
 80401690 9c673347 77009346 f7ff1697 b3f66600  .g3Gw..F......f.
 804016a0 f98e33c7 77009347 f7ff1697 b3f76700  ..3.w..G......g.
 804016b0 7d8fd98e 81e64105 e3f9a8fc 636ea602  }.....A.....cn..
 804016c0 81466314 c5008145 05a0098e aa953387  .Fc....E......3.
 804016d0 d5000347 07006308 07018506 e319d6fe  ...G..c.........
 804016e0 8145b286 11a08545 aa962e85 b685a260  .E.....E.......`
 804016f0 41018280 8545d5bf 97260000 938686ba  A....E...&......
 80401700 b2853686 97000000 e780a000 00005971  ..6...........Yq
 80401710 86f42ae4 2ee82800 aae41715 00001305  ..*...(.........
 80401720 25dfaae8 0c08aeec aaf01725 00001305  %..........%....
 80401730 65bc2aec 09452af0 02f4ac00 2efcaae0  e.*..E*.........
 80401740 2808b285 97f0ffff e78000f0 00005971  (.............Yq
 80401750 86f42ae4 2ee82800 aae41715 00001305  ..*...(.........
 80401760 25dbaae8 0c08aeec aaf01725 00001305  %..........%....
 80401770 65ba2aec 09452af0 02f4ac00 2efcaae0  e.*..E*.........
 80401780 2808b285 97f0ffff e78000ec 00005971  (.............Yq
 80401790 86f42ae4 2ee82800 aae41715 00001305  ..*...(.........
 804017a0 25d7aae8 0c08aeec aaf01725 00001305  %..........%....
 804017b0 e5ba2aec 09452af0 02f4ac00 2efcaae0  ..*..E*.........
 804017c0 2808b285 97f0ffff e78000e8 00001d71  (..............q
 804017d0 a2eca6e8 cae4cee0 52fc56f8 5af45ef0  ........R.V.Z.^.
 804017e0 62ec66e8 6ae49306 16ff3337 d600014d  b.f.j.....37...M
 804017f0 11e3368d 63040620 81461387 7500619b  ..6.c.. .F..u.a.
 80401800 3308b740 13071800 133c1700 97280000  3..@.....<...(..
 80401810 9388c8b6 91421303 400f9303 0008130e  .....B..@.......
 80401820 000f930e 0003094f fd5f1309 f00b8d4b  .......O._.....K
 80401830 130bd00e 9309000e 130a000a ad4a4177  .............JAw
 80401840 1b071710 42071307 17104207 13071710  ....B.....B.....
 80401850 3e071304 070829a0 93861700 63f0c61a  >.....).....c...
 80401860 3387d500 83470700 13978703 93548743  3....G.......T.C
 80401870 63cc0400 63160c00 3307d840 1d8b05cf  c...c...3..@....
 80401880 8506e3ef c6fc9daa 33871701 03470700  ........3....G..
 80401890 630b5704 630b7707 6316e717 93871600  c.W.c.w.c.......
 804018a0 63f5c716 3387f500 03470700 1377070c  c...3....G...w..
 804018b0 e30477fa 81aa63fc a6013387 d5001c63  ..w...c...3....c
 804018c0 18675d8f 618f01e7 c106e3e8 a6ffe3fa  .g].a...........
 804018d0 c6fa3387 d5000307 0700e344 07fa8506  ..3........D....
 804018e0 e319d6fe 21aa1387 16006370 c7122e97  ....!.....cp....
 804018f0 03470700 638b6702 6393c705 13070707  .G..c.g.c.......
 80401900 1377f70f 636dd705 f5a81387 1600637e  .w..cm........c~
 80401910 c70e2e97 834c0700 638c6707 63943709  .....L..c.g.c.7.
 80401920 13f70c0e 630d470b f1a89317 8703e197  ....c.G.........
 80401930 93a70700 13370709 7d8f15e3 e1a09387  .....7..}.......
 80401940 f40093f7 f70fb337 ff009314 8703e194  .......7........
 80401950 b3a49f00 c58f3337 e9005d8f 45e71387  ......37..].E...
 80401960 26006374 c70a2e97 03470700 1377070c  &.ct.....G...w..
 80401970 85446311 770c9387 360063f8 c7083387  .Dc.w...6.c...3.
 80401980 f5000347 07001377 070ce307 77ec6da0  ...G...w....w.m.
 80401990 13978c03 61971327 070093b7 0c0a7d8f  ....a..'......}.
 804019a0 1def8da0 1387f401 9377f70f 13978c03  .........w......
 804019b0 63eafa00 61971327 070093b7 0c0c7d8f  c...a..'......}.
 804019c0 19ef89a0 93f7e4ff c907b337 f0006197  ...........7..a.
 804019d0 33a7ef00 5d8fb337 99015d8f 05e79387  3...]..7..].....
 804019e0 260063f4 c7023387 f5000347 07001377  &.c...3....G...w
 804019f0 070ce303 77e68544 894511a8 81460ce5  ....w..D.E...F..
 80401a00 10e919a8 85458544 19a08145 8144a205  .....E.D...E.D..
 80401a10 c58d14e5 0ce98546 14e1226d c26c626c  .......F.."m.lbl
 80401a20 827b227b c27a627a 86692669 c6646664  .{"{.zbz.i&i.dfd
 80401a30 25618280 8945e1bf 8d45d1bf 157186ed  %a...E...E...q..
 80401a40 32e436e8 93071010 85482e88 63e2f504  2.6......H..c...
 80401a50 81439388 15f09302 05101303 f0fb1388  .C..............
 80401a60 03106378 b800b387 72008387 0700634b  ..cx....r.....cK
 80401a70 f3029387 f30f3338 f000b3c7 7800b337  ......38....x..7
 80401a80 f000b377 f800fd13 f9fb8148 13880310  ...w.......H....
 80401a90 2aec42f0 639d0800 97270000 9387079e  *.B.c....'......
 80401aa0 154819a8 81482aec 42f0e387 08fe0148  .H...H*.B......H
 80401ab0 97170000 9387074d 3ef4b3b8 c50093c2  .......M>.......
 80401ac0 1800b3b7 d50093c7 1700b3f7 f20042f8  ..............B.
 80401ad0 8def6393 08003686 b2e4a800 2ae51715  ..c...6.....*...
 80401ae0 00001305 e5a22ae9 28082aed 17150000  ......*.(.*.....
 80401af0 1305a5e5 2af12c10 2ef52af9 17250000  ....*.,...*..%..
 80401b00 1305459a aaec0d45 ddaa63fd c6022800  ..E....E..c...(.
 80401b10 2ae51715 00001305 a59f2ae9 0c082eed  *.........*.....
 80401b20 2af12808 2af51715 00001305 05e22af9  *.(.*.........*.
 80401b30 2c102efd aae11725 00001305 a59aaaec  ,......%........
 80401b40 114575aa 13381600 b3c7c500 93b71700  .Eu..8..........
 80401b50 b367f800 99c33686 19a8637a b600b307  .g....6...cz....
 80401b60 c5000388 07009307 00fce356 f8fe9336  ...........V...6
 80401b70 1600b347 b60093b7 1700dd8e 32fc81ca  ...G........2...
 80401b80 b2871303 41043e86 630fb602 a9a89388  ....A.>.c.......
 80401b90 15001308 00fc6378 b600b307 c5008387  ......cx........
 80401ba0 070063de 07039307 f6ff93b6 170033c6  ..c...........3.
 80401bb0 c8001336 1600d18e 3e86f1de 13034104  ...6....>.....A.
 80401bc0 3e866312 b6021715 00001305 25409305  >.c.........%@..
 80401bd0 b0023a86 97f0ffff e78040a0 00001303  ..:.......@.....
 80401be0 4104e302 b6feb306 c5008387 060093f3  A...............
 80401bf0 f70f63c6 07009ec2 a8008547 55a82e95  ..c........GU...
 80401c00 93851600 639fa500 8148aa85 9306000e  ....c....H......
 80401c10 13f8f301 63f3d302 13156800 b3651501  ....c.....h..e..
 80401c20 bda083c7 16009385 260093f8 f7039306  ........&.......
 80401c30 000e13f8 f301e3e1 d3fe6395 a5008145  ..........c....E
 80401c40 aa8239a0 83c60500 93821500 93f5f603  ..9.............
 80401c50 93966800 9307000f d58d63e6 f3006398  ..h.......c...c.
 80401c60 a2000145 09a81315 c800c98d 0da003c5  ...E............
 80401c70 02001375 f5039316 2801b707 1c00fd8e  ...u....(.......
 80401c80 9a05d58d c98d3705 1100e38e a5f2aec2  ......7.........
 80401c90 a8009306 00088547 63ecd500 93d6b500  .......Gc.......
 80401ca0 894799c6 c18193b5 15009146 b387b640  .G.........F...@
 80401cb0 b385c700 b2e4aee8 2c182ee5 97150000  ........,.......
 80401cc0 93850585 2ee91aed 97f5ffff 9385a56c  ...............l
 80401cd0 2ef12af5 17f5ffff 13054582 2af92808  ..*.......E.*.(.
 80401ce0 2afd1715 00001305 45c6aae1 2c10aee5  *.......E...,...
 80401cf0 aae91725 00001305 e585aaec 1545aaf0  ...%.........E..
 80401d00 82f42c01 aefc2ae1 a808ba85 97f0ffff  ..,...*.........
 80401d10 e7808093 00004111 06e49b55 0501f1e1  ......A....U....
 80401d20 81454166 1b0606f0 698e1353 86001727  .EAf....i..S...'
 80401d30 00001307 a78c1308 30129728 00009388  ........0..(....
 80401d40 08919302 27059377 f50f11a8 b335d300  ....'..w.....5..
 80401d50 33465700 13361600 4d8e9e85 15ea8346  3FW..6..M......F
 80401d60 07000346 17000907 b383c500 e39066fe  ...F..........f.
 80401d70 63e0b31e 63f9031f c69501ca 83c60500  c...c...........
 80401d80 85057d16 e39bf6fe 6da29e85 e31957fc  ..}.....m.....W.
 80401d90 c165fd35 e98d1727 00001307 679d0545  .e.5...'....g..E
 80401da0 7d589306 57138307 07001306 17006359  }X..W.........cY
 80401db0 f80093f7 f70f3287 9d9d63df 05009daa  ......2...c.....
 80401dc0 6306d61c 03461700 93f7f707 a2070907  c....F..........
 80401dd0 d18f9d9d 63c00516 13451500 e315d7fc  ....c....E......
 80401de0 91aa9b55 1501f1e1 81454166 1b0606f0  ...U.....EAf....
 80401df0 698e1353 86001727 00001307 b7aa1308  i..S...'........
 80401e00 000b9728 00009388 b8ae9302 c7049377  ...(...........w
 80401e10 f50f11a8 b335d300 33465700 13361600  .....5..3FW..6..
 80401e20 4d8e9e85 15ea8346 07000346 17000907  M......F...F....
 80401e30 b383c500 e39066fe 63ecb310 63fc0313  ......f.c...c...
 80401e40 c69501ca 83c60500 85057d16 e39bf6fe  ..........}.....
 80401e50 cda09e85 e31957fc c165fd35 e98d1727  ......W..e.5...'
 80401e60 00001307 e7b30545 7d589306 371a8307  .......E}X..7...
 80401e70 07001306 17006359 f80093f7 f70f3287  ......cY......2.
 80401e80 9d9d63df 05007da0 6302d610 03461700  ..c...}.c....F..
 80401e90 93f7f707 a2070907 d18f9d9d 63cc0508  ............c...
 80401ea0 13451500 e315d7fc 71a0b765 fdff9b85  .E......q..e....
 80401eb0 2592a99d 93b52502 3756fdff 1b06b68c  %.....%.7V......
 80401ec0 299e1336 b600d18d 37062000 7936698e  )..6....7. .y6i.
 80401ed0 b7c60200 9b86e681 358e1336 1600d18d  ........5..6....
 80401ee0 3736fdff 1b06e615 299e1336 e600d18d  76......)..6....
 80401ef0 3716fdff 1b06f641 299e8566 9b86f6c1  7......A)..f....
 80401f00 3336d600 d18d3706 fdff1b06 265e299e  36....7.....&^).
 80401f10 1336265e d18d37f6 fcff1b06 56cb299e  .6&^..7.....V.).
 80401f20 b7f60a00 9b8656db 3336d600 d18d8589  ......V.36......
 80401f30 91c50145 0589a260 41018280 0125b705  ...E...`A....%..
 80401f40 0e009b85 051f3335 b500a260 41018280  ......35...`A...
 80401f50 17160000 13068667 2e859e85 97000000  .......g........
 80401f60 e7802083 00001716 00001306 26669305  .. .........&f..
 80401f70 201239a0 17160000 13064665 9305f00a   .9.......Fe....
 80401f80 1e8597f0 ffffe780 c07c0000 17150000  .........|......
 80401f90 1305c503 17160000 1306c664 9305b002  ...........d....
 80401fa0 97e0ffff e7808063 00007571 06e51461  .......c..uq...a
 80401fb0 2e858145 13088100 294739a0 13067605  ...E....)G9...v.
 80401fc0 a38fc706 fd1591ce b307b800 13f6f600  ................
 80401fd0 9182e375 e6fe1366 0603a38f c706fd15  ...u...f........
 80401fe0 e5f69386 05081306 100863f4 c602b307  ..........c.....
 80401ff0 b040c295 13870508 17160000 1306861a  .@..............
 80402000 85458946 97f0ffff e780e0e0 aa604961  .E.F.........`Ia
 80402010 82801716 00001306 66179305 00083685  ........f.....6.
 80402020 97f0ffff e780e06e 00007571 06e51461  .......n..uq...a
 80402030 2e858145 13088100 294739a0 13067603  ...E....)G9...v.
 80402040 a38fc706 fd1591ce b307b800 13f6f600  ................
 80402050 9182e375 e6fe1366 0603a38f c706fd15  ...u...f........
 80402060 e5f69386 05081306 100863f4 c602b307  ..........c.....
 80402070 b040c295 13870508 17160000 13068612  .@..............
 80402080 85458946 97f0ffff e780e0d8 aa604961  .E.F.........`Ia
 80402090 82801716 00001306 660f9305 00083685  ........f.....6.
 804020a0 97f0ffff e780e066 00007571 06e52e88  .......f..uq....
 804020b0 83e50503 13f60501 19ea93f5 0502a9e1  ................
 804020c0 c285aa60 49611703 00006700 63440861  ...`Ia....g.cD.a
 804020d0 81453000 a94639a0 93877705 a30ff706  .E0..F9...w.....
 804020e0 fd1539c5 3307b600 9377f500 1181e3f5  ..9.3....w......
 804020f0 d7fe93e7 0703a30f f706fd15 65f50da8  ............e...
 80402100 08618145 3000a946 39a09387 7703a30f  .a.E0..F9...w...
 80402110 f706fd15 11cd3307 b6009377 f5001181  ......3....w....
 80402120 e3f5d7fe 93e70703 a30ff706 fd1565f5  ..............e.
 80402130 13850508 93061008 6376d502 b307b040  ........cv.....@
 80402140 3305b600 13070508 17160000 13068605  3...............
 80402150 85458946 428597f0 ffffe780 c0cbaa60  .E.FB..........`
 80402160 49618280 17160000 13064602 93050008  Ia........F.....
 80402170 97f0ffff e780e059 00005d71 86e4a2e0  .......Y..]q....
 80402180 26fc4af8 03690500 2e859355 49009306  &.J..i.....UI...
 80402190 70021307 10271718 00001308 c80063f3  p....'........c.
 804021a0 e5029305 300663e0 250fa545 63cd2513  ....0.c.%..Ec.%.
 804021b0 9385f6ff 13069100 2e969306 09032300  ..............#.
 804021c0 d60091a2 8146b735 1a009b85 356eba05  .....F.5....5n..
 804021d0 938575ac ba059385 3543b605 9388b594  ..u.....5C......
 804021e0 89651b83 0571c165 1b8ec5ff 37f75100  .e...q.e....7.Q.
 804021f0 1b0757b8 36071307 773d3a07 1307f728  ..W.6...w=:....(
 80402200 3207930e 375c9302 40061b8f e5ff9303  2...7\..@.......
 80402210 9100b7e5 f5059b8f f50f4a86 b3371903  ..........J..7..
 80402220 13d9b700 33076902 3307e640 b375c701  ....3.i.3..@.u..
 80402230 8981b3b5 d5038981 13941500 b3855502  ..............U.
 80402240 b305b740 8605b3f5 e5013307 04013384  ...@......3...3.
 80402250 d3008344 07000307 1700c295 83871500  ...D............
 80402260 83c50500 2302e402 a3019402 2303f402  ....#.......#...
 80402270 a302b402 f116e3e2 cffa9386 76029305  ............v...
 80402280 3006e3f4 25f3c165 1b86c5ff 3376c900  0...%..e....3v..
 80402290 098237f7 51001b07 57b83607 1307773d  ..7.Q...W.6...w=
 804022a0 3a071307 f7283207 1307375c 3336e602  :....(2...7\36..
 804022b0 09821307 40063307 e6023307 e9400607  ....@.3...3..@..
 804022c0 f935f98d f916c295 03871500 83c50500  .5..............
 804022d0 93079100 b697a380 e7002380 b7003289  ..........#...2.
 804022e0 a545e3d7 25ed1316 19009385 e6ff4296  .E..%.........B.
 804022f0 83061600 03460600 13079100 2e97a300  .....F..........
 80402300 d7002300 c7001306 91003307 b6001306  ..#.......3.....
 80402310 7002b307 b6401716 00001306 a6c68545  p....@.........E
 80402320 814697f0 ffffe780 00af4279 e2740664  .F........By.t.d
 80402330 a6606161 82805d71 86e4a2e0 26fc4af8  .`aa..]q....&.J.
 80402340 4ef40338 05002e85 9355f843 3306b800  N..8.....U.C3...
 80402350 b349b600 93d54900 93067002 13061027  .I....I...p....'
 80402360 97180000 938828e4 63f6c502 13063006  ......(.c.....0.
 80402370 fd556342 360f2546 b3a50501 634f3613  .UcB6.%F....cO6.
 80402380 1386f6ff 93061100 b2961387 09032380  ..............#.
 80402390 e600a9a2 81453736 1a001b06 366e3a06  .....E76....6n:.
 804023a0 130676ac 3a061306 36433606 9302b694  ..v.:...6C6.....
 804023b0 09669b03 06714166 9b0ec6ff b7f65100  .f...qAf......Q.
 804023c0 9b8656b8 b6069386 763dba06 9386f628  ..V.....v=.....(
 804023d0 b206138f 365c1303 40069b0f e6ff130e  ....6\..@.......
 804023e0 1100b7e6 f5051b89 f60f4e87 b3b75902  ..........N...Y.
 804023f0 93d9b700 33867902 3306c740 3374d601  ....3.y.3..@3t..
 80402400 09803334 e4030980 93141400 33046402  ..34........3.d.
 80402410 018e0606 3376f601 33841401 b304be00  ....3v..3.......
 80402420 83460400 03041400 46968307 16000346  .F......F......F
 80402430 06002382 8402a381 d4022383 f402a382  ..#.......#.....
 80402440 c402f115 e363e9fa 93867502 13063006  .....c....u...0.
 80402450 fd55e352 36f34166 1b07c6ff 33f7e900  .U.R6.Af....3...
 80402460 0983b7f7 51009b87 57b8b607 9387773d  ....Q...W.....w=
 80402470 ba079387 f728b207 9387375c 3337f702  .....(....7\37..
 80402480 09839307 4006b307 f702b387 f9408607  ....@........@..
 80402490 79367d8e f9164696 83071600 03460600  y6}...F......F..
 804024a0 93041100 b694a380 f4002380 c400ba89  ..........#.....
 804024b0 2546b3a5 0501e355 36ed1397 19001386  %F.....U6.......
 804024c0 e6ffb306 17010387 160083c6 06009307  ................
 804024d0 1100b297 a380e700 2380d700 93061100  ........#.......
 804024e0 3387c600 93067002 b387c640 17160000  3.....p....@....
 804024f0 130646a9 814697f0 ffffe780 c091a279  ..F..F.........y
 80402500 4279e274 0664a660 61618280 5d7186e4  By.t.d.`aa..]q..
 80402510 a2e026fc 4af80339 05002e85 93554900  ..&.J..9.....UI.
 80402520 93067002 13071027 17180000 1308a8c7  ..p....'........
 80402530 63f3e502 93053006 63c0250f a54563cd  c.....0.c.%..Ec.
 80402540 25139385 f6ff1306 91002e96 93060903  %...............
 80402550 2300d600 91a28146 b7351a00 9b85356e  #......F.5....5n
 80402560 ba059385 75acba05 93853543 b6059388  ....u.....5C....
 80402570 b5948965 1b830571 c1651b8e c5ff37f7  ...e...q.e....7.
 80402580 51001b07 57b83607 1307773d 3a071307  Q...W.6...w=:...
 80402590 f7283207 930e375c 93024006 1b8fe5ff  .(2...7\..@.....
 804025a0 93039100 b7e5f505 9b8ff50f 4a86b337  ............J..7
 804025b0 190313d9 b7003307 69023307 e640b375  ......3.i.3..@.u
 804025c0 c7018981 b3b5d503 89811394 1500b385  ................
 804025d0 5502b305 b7408605 b3f5e501 33070401  U....@......3...
 804025e0 3384d300 83440700 03071700 c2958387  3....D..........
 804025f0 150083c5 05002302 e402a301 94022303  ......#.......#.
 80402600 f402a302 b402f116 e3e2cffa 93867602  ..............v.
 80402610 93053006 e3d425f3 c1651b86 c5ff3376  ..0...%..e....3v
 80402620 c9000982 37f75100 1b0757b8 36071307  ....7.Q...W.6...
 80402630 773d3a07 1307f728 32071307 375c3336  w=:....(2...7\36
 80402640 e6020982 13074006 3307e602 3307e940  ......@.3...3..@
 80402650 0607f935 f98df916 c2950387 150083c5  ...5............
 80402660 05009307 9100b697 a380e700 2380b700  ............#...
 80402670 3289a545 e3d725ed 13161900 9385e6ff  2..E..%.........
 80402680 42968306 16000346 06001307 91002e97  B......F........
 80402690 a300d700 2300c700 13069100 3307b600  ....#.......3...
 804026a0 13067002 b307b640 17160000 1306868d  ..p....@........
 804026b0 85458146 97e0ffff e780e075 4279e274  .E.F.......uBy.t
 804026c0 0664a660 61618280 90758871 1c6e9715  .d.`aa...u.q.n..
 804026d0 00009385 25501546 82870861 17030000  ....%P.F...a....
 804026e0 6700e39c 757106e5 2e8883e5 05030861  g...uq.........a
 804026f0 13f60501 25e60345 050093f5 0502d1e9  ....%..E........
 80402700 93054006 6369b50e 1376c50f 0982b7f6  ..@.ci...v......
 80402710 51009b86 56b8b606 9386763d ba069386  Q...V.....v=....
 80402720 f628b206 9386365c 3336d602 0982b305  .(....6\36......
 80402730 b6020d8d 06051375 e50f9715 00009385  .......u........
 80402740 85a62e95 83051500 03450500 2307b102  .........E..#...
 80402750 a306a102 93054002 32855da0 03450500  ......@.2.]..E..
 80402760 81453000 a94639a0 93877705 a30ff706  .E0..F9...w.....
 80402770 fd1521c9 3307b600 9377f500 11813d89  ..!.3....w....=.
 80402780 e3f4d7fe 93e70703 a30ff706 fd157df1  ..............}.
 80402790 0da88145 3000a946 39a09387 7703a30f  ...E0..F9...w...
 804027a0 f706fd15 19cd3307 b6009377 f5001181  ......3....w....
 804027b0 3d89e3f4 d7fe93e7 0703a30f f706fd15  =...............
 804027c0 7df11385 05089306 10086377 d508b307  }.........cw....
 804027d0 b0403305 b6001307 05081716 00001306  .@3.............
 804027e0 669c8545 89464285 97e0ffff e780a062  f..E.FB........b
 804027f0 aa604961 82802546 93056002 6369a600  .`Ia..%F..`.ci..
 80402800 30002e96 13050503 2300a600 0da00605  0.......#.......
 80402810 97150000 93852599 2e958305 15000345  ......%........E
 80402820 05002307 b102a306 a1029305 50022800  ..#.........P.(.
 80402830 3307b500 13057002 b307b540 17060000  3.....p....@....
 80402840 13064674 85454285 814697e0 ffffe780  ..Ft.EB..F......
 80402850 805caa60 49618280 17160000 13060693  .\.`Ia..........
 80402860 93050008 97f0ffff e780a0ea 00003971  ..............9q
 80402870 06fc22f8 26f41061 03450600 85462e84  ..".&..a.E...F..
 80402880 6312d50a 0c740870 946d9304 16009705  c....t.p.m......
 80402890 00009385 e5721146 829622e4 230ca100  .....r.F..".#...
 804028a0 02e8a30c 010026f0 17160000 1306068a  ......&.........
 804028b0 28000c10 97e0ffff e7808005 42658345  (...........Be.E
 804028c0 810131c9 0544a9e5 83459101 7d153335  ..1..D...E..}.35
 804028d0 a00093b5 15004d8d 0de12265 83450503  ......M..."e.E..
 804028e0 918981ed 0c750871 946d9715 00009385  .....u.q.m......
 804028f0 65850546 05448296 01ed2265 0c750871  e..F.D...."e.u.q
 80402900 946d9715 00009385 f5830546 82962a84  .m.........F..*.
 80402910 230c8100 a2853335 b000a274 4274e270  #.....35...tBt.p
 80402920 21618280 0c740870 9c6d9705 00009385  !a...t.p.m......
 80402930 a5691146 a2744274 e2702161 82871065  .i.F.tBt.p!a...e
 80402940 08611c6e 82871461 10652e85 b68517e3  .a.n...a.e......
 80402950 ffff6700 43753971 06fc22f8 26f44af0  ..g.Cu9q..".&.J.
 80402960 2e848c75 1470986d aa841309 85009715  ...u.p.m........
 80402970 00009385 75262546 36850297 2ae422e0  ....u&%F6...*.".
 80402980 26ec9715 00009385 c5251717 00001307  &........%......
 80402990 67220a84 34082d46 228597e0 ffffe780  g"..4.-F".......
 804029a0 60e14aec 97150000 93855524 17170000  `.J.......U$....
 804029b0 1307c724 34082546 228597e0 ffffe780  ...$4.%F".......
 804029c0 60df0345 91008345 81001dc9 054595e5  `..E...E.....E..
 804029d0 02650c75 03460503 0871946d 93754600  .e.u.F...q.m.uF.
 804029e0 99e59705 00009385 95750946 31a09705  .........u.F1...
 804029f0 00009385 c5740546 82962304 a100aa85  .....t.F..#.....
 80402a00 3335b000 0279a274 4274e270 21618280  35...y.tBt.p!a..
 80402a10 411106e4 81469b05 05004566 1b0746d2  A....F....Ef..F.
 80402a20 1b16b500 63e3e500 bd461387 86009317  ....c....F......
 80402a30 27009715 00009385 651eae97 9c439b97  '.......e....C..
 80402a40 b7006363 f600ba86 13874600 93172700  ..cc......F...'.
 80402a50 ae979c43 9b97b700 6363f600 ba861387  ...C....cc......
 80402a60 26009317 2700ae97 9c439b97 b7006363  &...'....C....cc
 80402a70 f600ba86 13871600 93172700 ae979c43  ..........'....C
 80402a80 9b97b700 6363f600 ba861397 26002e97  ....cc......&...
 80402a90 18431b17 b700b337 c700398e 13361600  .C.....7..9..6..
 80402aa0 3e963307 d600f946 63e4e60a 93172700  >.3....Fc.....'.
 80402ab0 1306102b 6307d700 3386f500 03664600  ...+c...3....fF.
 80402ac0 55829306 f7ff6374 d7000147 21a87d47  U.....ct...G!.}G
 80402ad0 63fbe608 8a06ae96 83e60600 37072000  c...........7. .
 80402ae0 7d37758f be9583e5 0500d581 93861500  }7u.............
 80402af0 630fd602 9307102b 2e8863e4 b7001308  c......+..c.....
 80402b00 102b8147 3b07e540 1305f6ff 17160000  .+.G;..@........
 80402b10 13068618 6302b802 b386c500 83c60600  ....c...........
 80402b20 b59f6366 f7008505 e316b5fe aa8513f5  ..cf............
 80402b30 1500a260 41018280 17160000 13068604  ...`A...........
 80402b40 9305102b 428597e0 ffffe780 e0ab0000  ...+B...........
 80402b50 17160000 13068601 fd453a85 97e0ffff  .........E:.....
 80402b60 e78080aa 00001716 00001306 2603fd45  ............&..E
 80402b70 368597e0 ffffe780 20a90000 357106ed  6....... ...5q..
 80402b80 22e92a84 97e0ffff e78000a4 65c92ae4  ".*.........e.*.
 80402b90 228597e0 ffffe780 60a32dcd 2a8497e0  ".......`.-.*...
 80402ba0 ffffe780 e0a2aae0 aee42285 97e0ffff  ..........".....
 80402bb0 e78080a2 aaca8800 2ae81705 00001305  ........*.......
 80402bc0 050e2aec c8082af0 17f5ffff 1305255b  ..*...*.......%[
 80402bd0 2af42800 2af81705 00001305 850d2afc  *.(.*.........*.
 80402be0 8810aaec 17150000 1305c53f aaf01145  ...........?...E
 80402bf0 aaf482f8 08082ae1 0d452ae5 97050000  ......*..E*.....
 80402c00 9385c529 a8089010 97e0ffff e7808006  ...)............
 80402c10 31e101a0 28002ae8 17050000 13056509  1...(.*.......e.
 80402c20 2aec8810 aae01715 00001305 a538aaf0  *............8..
 80402c30 0945aaf4 82f80808 2ae10545 2ae59705  .E......*..E*...
 80402c40 00009385 a5258800 901097e0 ffffe780  .....%..........
 80402c50 600261d1 17050000 13054527 97060000  `.a.......E'....
 80402c60 9386c629 17070000 1307472c 90109305  ...)......G,....
 80402c70 b00297e0 ffffe780 60900000 17150000  ........`.......
 80402c80 1305952c 17160000 13064630 9305b002  ...,......F0....
 80402c90 97e0ffff e7808094 00001061 14652e87  ...........a.e..
 80402ca0 3285b685 3a8617e3 ffff6700 c36d0861  2...:.....g..m.a
 80402cb0 17e3ffff 6700e3f8 19c6aa86 2380b600  ....g.......#...
 80402cc0 7d168506 65fe8280                    }...e...        
Contents of section .rodata:
 80402cc8 63616c6c 65642060 52657375 6c743a3a  called `Result::
 80402cd8 756e7772 61702829 60206f6e 20616e20  unwrap()` on an 
 80402ce8 60457272 60207661 6c756500 00000000  `Err` value.....
 80402cf8 58004080 00000000 10000000 00000000  X.@.............
 80402d08 08000000 00000000 56294080 00000000  ........V)@.....
 80402d18 73747269 6e672066 726f6d20 64617461  string from data
 80402d28 20736563 74696f6e 0a000000 00000000   section........
 80402d38 20286279 74657320 ffffffff ffffffff   (bytes ........
 80402d48 05000000 00000000 61737365 7274696f  ........assertio
 80402d58 6e206661 696c6564 3a206028 6c656674  n failed: `(left
 80402d68 203d3d20 72696768 7429600a 20206c65   == right)`.  le
 80402d78 66743a20 60602c0a 20726967 68743a20  ft: ``,. right: 
 80402d88 60600000 00000000 502d4080 00000000  ``......P-@.....
 80402d98 2d000000 00000000 7d2d4080 00000000  -.......}-@.....
 80402da8 0c000000 00000000 892d4080 00000000  .........-@.....
 80402db8 01000000 00000000 7372632f 62696e2f  ........src/bin/
 80402dc8 6368325f 77726974 65312e72 73000000  ch2_write1.rs...
 80402dd8 c02d4080 00000000 15000000 00000000  .-@.............
 80402de8 11000000 05000000 73747269 6e672066  ........string f
 80402df8 726f6d20 73746163 6b207365 6374696f  rom stack sectio
 80402e08 6e21210a 00000000 c02d4080 00000000  n!!......-@.....
 80402e18 15000000 00000000 22000000 47000000  ........"...G...
 80402e28 c02d4080 00000000 15000000 00000000  .-@.............
 80402e38 23000000 05000000 c02d4080 00000000  #........-@.....
 80402e48 15000000 00000000 27000000 1f000000  ........'.......
 80402e58 c02d4080 00000000 15000000 00000000  .-@.............
 80402e68 27000000 05000000 0a546573 74207772  '........Test wr
 80402e78 69746531 204f4b21 0a000000 00000000  ite1 OK!........
 80402e88 702e4080 00000000 11000000 00000000  p.@.............
 80402e98 82034080 00000000 08000000 00000000  ..@.............
 80402ea8 08000000 00000000 76044080 00000000  ........v.@.....
 80402eb8 84034080 00000000 3c044080 00000000  ..@.....<.@.....
 80402ec8 63616c6c 65642060 52657375 6c743a3a  called `Result::
 80402ed8 756e7772 61702829 60206f6e 20616e20  unwrap()` on an 
 80402ee8 60457272 60207661 6c756500 00000000  `Err` value.....
 80402ef8 82034080 00000000 00000000 00000000  ..@.............
 80402f08 01000000 00000000 c8264080 00000000  .........&@.....
 80402f18 7372632f 636f6e73 6f6c652e 72730000  src/console.rs..
 80402f28 182f4080 00000000 0e000000 00000000  ./@.............
 80402f38 10000000 1c000000 756e7265 61636861  ........unreacha
 80402f48 626c6520 61667465 72207379 735f6578  ble after sys_ex
 80402f58 69742173 72632f6c 69622e72 73000000  it!src/lib.rs...
 80402f68 5b2f4080 00000000 0a000000 00000000  [/@.............
 80402f78 12000000 05000000 602e2e00 00000000  ........`.......
 80402f88 812f4080 00000000 02000000 00000000  ./@.............
 80402f98 29207768 656e2073 6c696369 6e672060  ) when slicing `
 80402fa8 72616e67 6520656e 6420696e 64657820  range end index 
 80402fb8 20202020 536f6d65 203c3d20 4e6f6e65      Some <= None
 80402fc8 63616c6c 65642060 4f707469 6f6e3a3a  called `Option::
 80402fd8 756e7772 61702829 60206f6e 20612060  unwrap()` on a `
 80402fe8 4e6f6e65 60207661 6c75653a 20000000  None` value: ...
 80402ff8 802f4080 00000000 00000000 00000000  ./@.............
 80403008 f32f4080 00000000 02000000 00000000  ./@.............
 80403018 f6044080 00000000 00000000 00000000  ..@.............
 80403028 01000000 00000000 5c054080 00000000  ........\.@.....
 80403038 6c696272 6172792f 636f7265 2f737263  library/core/src
 80403048 2f736c69 63652f6d 656d6368 722e7273  /slice/memchr.rs
 80403058 696e6465 78206f75 74206f66 20626f75  index out of bou
 80403068 6e64733a 20746865 206c656e 20697320  nds: the len is 
 80403078 6c696272 6172792f 636f7265 2f737263  library/core/src
 80403088 2f666d74 2f627569 6c646572 732e7273  /fmt/builders.rs
 80403098 20627574 20746865 20696e64 65782069   but the index i
 804030a8 73200000 00000000 58304080 00000000  s ......X0@.....
 804030b8 20000000 00000000 98304080 00000000   ........0@.....
 804030c8 12000000 00000000 f6044080 00000000  ..........@.....
 804030d8 18000000 00000000 08000000 00000000  ................
 804030e8 6c064080 00000000 000a4080 00000000  l.@.......@.....
 804030f8 e00a4080 00000000 78304080 00000000  ..@.....x0@.....
 80403108 20000000 00000000 32000000 21000000   .......2...!...
 80403118 78304080 00000000 20000000 00000000  x0@..... .......
 80403128 33000000 12000000 207b0a2c 0a2c2020  3....... {.,.,  
 80403138 7b207d20 7d280a28 2c290000 00000000  { } }(.(,)......
 80403148 f6044080 00000000 08000000 00000000  ..@.............
 80403158 08000000 00000000 e4264080 00000000  .........&@.....
 80403168 6c696272 6172792f 636f7265 2f737263  library/core/src
 80403178 2f666d74 2f6e756d 2e727300 00000000  /fmt/num.rs.....
 80403188 68314080 00000000 1b000000 00000000  h1@.............
 80403198 65000000 14000000 30783030 30313032  e.......0x000102
 804031a8 30333034 30353036 30373038 30393130  0304050607080910
 804031b8 31313132 31333134 31353136 31373138  1112131415161718
 804031c8 31393230 32313232 32333234 32353236  1920212223242526
 804031d8 32373238 32393330 33313332 33333334  2728293031323334
 804031e8 33353336 33373338 33393430 34313432  3536373839404142
 804031f8 34333434 34353436 34373438 34393530  4344454647484950
 80403208 35313532 35333534 35353536 35373538  5152535455565758
 80403218 35393630 36313632 36333634 36353636  5960616263646566
 80403228 36373638 36393730 37313732 37333734  6768697071727374
 80403238 37353736 37373738 37393830 38313832  7576777879808182
 80403248 38333834 38353836 38373838 38393930  8384858687888990
 80403258 39313932 39333934 39353936 39373938  9192939495969798
 80403268 39390000 00000000 f6044080 00000000  99........@.....
 80403278 08000000 00000000 08000000 00000000  ................
 80403288 180b4080 00000000 220b4080 00000000  ..@.....".@.....
 80403298 040c4080 00000000 38304080 00000000  ..@.....80@.....
 804032a8 20000000 00000000 5a000000 05000000   .......Z.......
 804032b8 72616e67 65207374 61727420 696e6465  range start inde
 804032c8 7820206f 7574206f 66207261 6e676520  x  out of range 
 804032d8 666f7220 736c6963 65206f66 206c656e  for slice of len
 804032e8 67746820 00000000 b8324080 00000000  gth .....2@.....
 804032f8 12000000 00000000 ca324080 00000000  .........2@.....
 80403308 22000000 00000000 a82f4080 00000000  "......../@.....
 80403318 10000000 00000000 ca324080 00000000  .........2@.....
 80403328 22000000 00000000 736c6963 6520696e  ".......slice in
 80403338 64657820 73746172 74732061 74202062  dex starts at  b
 80403348 75742065 6e647320 61742000 00000000  ut ends at .....
 80403358 30334080 00000000 16000000 00000000  03@.............
 80403368 46334080 00000000 0d000000 00000000  F3@.............
 80403378 01010101 01010101 01010101 01010101  ................
 80403388 01010101 01010101 01010101 01010101  ................
 80403398 01010101 01010101 01010101 01010101  ................
 804033a8 01010101 01010101 01010101 01010101  ................
 804033b8 01010101 01010101 01010101 01010101  ................
 804033c8 01010101 01010101 01010101 01010101  ................
 804033d8 01010101 01010101 01010101 01010101  ................
 804033e8 01010101 01010101 01010101 01010101  ................
 804033f8 00000000 00000000 00000000 00000000  ................
 80403408 00000000 00000000 00000000 00000000  ................
 80403418 00000000 00000000 00000000 00000000  ................
 80403428 00000000 00000000 00000000 00000000  ................
 80403438 00000202 02020202 02020202 02020202  ................
 80403448 02020202 02020202 02020202 02020202  ................
 80403458 03030303 03030303 03030303 03030303  ................
 80403468 04040404 04000000 00000000 00000000  ................
 80403478 5b2e2e2e 5d627974 6520696e 64657820  [...]byte index 
 80403488 20697320 6f757420 6f662062 6f756e64   is out of bound
 80403498 73206f66 20600000 7d344080 00000000  s of `..}4@.....
 804034a8 0b000000 00000000 88344080 00000000  .........4@.....
 804034b8 16000000 00000000 802f4080 00000000  ........./@.....
 804034c8 01000000 00000000 62656769 6e203c3d  ........begin <=
 804034d8 20656e64 20280000 d0344080 00000000   end (...4@.....
 804034e8 0e000000 00000000 c02f4080 00000000  ........./@.....
 804034f8 04000000 00000000 982f4080 00000000  ........./@.....
 80403508 10000000 00000000 802f4080 00000000  ........./@.....
 80403518 01000000 00000000 20697320 6e6f7420  ........ is not 
 80403528 61206368 61722062 6f756e64 6172793b  a char boundary;
 80403538 20697420 69732069 6e736964 65202920   it is inside ) 
 80403548 6f662060 00000000 7d344080 00000000  of `....}4@.....
 80403558 0b000000 00000000 20354080 00000000  ........ 5@.....
 80403568 26000000 00000000 382d4080 00000000  &.......8-@.....
 80403578 08000000 00000000 46354080 00000000  ........F5@.....
 80403588 06000000 00000000 802f4080 00000000  ........./@.....
 80403598 01000000 00000000 6c696272 6172792f  ........library/
 804035a8 636f7265 2f737263 2f756e69 636f6465  core/src/unicode
 804035b8 2f707269 6e746162 6c652e72 73000000  /printable.rs...
 804035c8 a0354080 00000000 25000000 00000000  .5@.....%.......
 804035d8 0a000000 1c000000 a0354080 00000000  .........5@.....
 804035e8 25000000 00000000 1a000000 36000000  %...........6...
 804035f8 00010305 05060603 07060808 09110a1c  ................
 80403608 0b190c14 0d100e0d 0f041003 12121309  ................
 80403618 16011705 18021903 1a071c02 1d011f16  ................
 80403628 20032b03 2c022d0b 2e013003 31023201   .+.,.-...0.1.2.
 80403638 a702a902 aa04ab08 fa02fb05 fd04fe03  ................
 80403648 ff09ad78 798b8da2 3057588b 8c901c1d  ...xy...0WX.....
 80403658 dd0e0f4b 4cfbfc2e 2f3f5c5d 5fb5e284  ...KL.../?\]_...
 80403668 8d8e9192 a9b1babb c5c6c9ca dee4e5ff  ................
 80403678 00041112 29313437 3a3b3d49 4a5d848e  ....)147:;=IJ]..
 80403688 92a9b1b4 babbc6ca cecfe4e5 00040d0e  ................
 80403698 11122931 343a3b45 46494a5e 64658491  ..)14:;EFIJ^de..
 804036a8 9b9dc9ce cf0d1129 45495764 658d91a9  .......)EIWde...
 804036b8 b4babbc5 c9dfe4e5 f00d1145 49646580  ...........EIde.
 804036c8 84b2bcbe bfd5d7f0 f183858b a4a6bebf  ................
 804036d8 c5c7cecf dadb4898 bdcdc6ce cf494e4f  ......H......INO
 804036e8 57595e5f 898e8fb1 b6b7bfc1 c6c7d711  WY^_............
 804036f8 16175b5c f6f7feff 800d6d71 dedf0e0f  ..[\......mq....
 80403708 1f6e6f1c 1d5f7d7e aeafbbbc fa16171e  .no.._}~........
 80403718 1f46474e 4f585a5c 5e7e7fb5 c5d4d5dc  .FGNOXZ\^~......
 80403728 f0f1f572 738f7475 962f5f26 2e2fa7af  ...rs.tu./_&./..
 80403738 b7bfc7cf d7df9a40 9798308f 1fc0c1ce  .......@..0.....
 80403748 ff4e4f5a 5b07080f 10272fee ef6e6f37  .NOZ[....'/..no7
 80403758 3d3f4245 9091feff 536775c8 c9d0d1d8  =?BE....Sgu.....
 80403768 d9e7feff 00205f22 82df0482 44081b04  ..... _"....D...
 80403778 061181ac 0e80ab35 280b80e0 03190801  .......5(.......
 80403788 042f0434 04070301 07060711 0a500f12  ./.4.........P..
 80403798 07550703 041c0a09 03080307 03020303  .U..............
 804037a8 030c0405 030b0601 0e15053a 03110706  ...........:....
 804037b8 05100757 07020715 0d500443 032d0301  ...W.....P.C.-..
 804037c8 0411060f 0c3a041d 255f206d 046a2580  .....:..%_ m.j%.
 804037d8 c80582b0 031a0682 fd035907 150b1709  ..........Y.....
 804037e8 140c140c 6a060a06 1a065907 2b05460a  ....j.....Y.+.F.
 804037f8 2c040c04 0103310b 2c041a06 0b0380ac  ,.....1.,.......
 80403808 060a0621 3f4c042d 0374083c 030f033c  ...!?L.-.t.<...<
 80403818 0738082b 0582ff11 18082f11 2d032010  .8.+....../.-. .
 80403828 210f808c 04829719 0b158894 052f053b  !............/.;
 80403838 07020e18 0980b32d 740c80d6 1a0c0580  .......-t.......
 80403848 ff0580df 0cee0d03 848d0337 09815c14  ...........7..\.
 80403858 80b80880 cb2a3803 0a063808 46080c06  .....*8...8.F...
 80403868 740b1e03 5a045909 8083181c 0a16094c  t...Z.Y........L
 80403878 04808a06 aba40c17 0431a104 81da2607  .........1....&.
 80403888 0c050580 a511816d 1078282a 064c0480  .......m.x(*.L..
 80403898 8d0480be 031b030f 0d000601 01030104  ................
 804038a8 02080809 020a050b 020e0410 01110212  ................
 804038b8 05131114 01150217 02190d1c 051d0824  ...............$
 804038c8 016a036b 02bc02d1 02d40cd5 09d602d7  .j.k............
 804038d8 02da01e0 05e102e8 02ee20f0 04f802f9  .......... .....
 804038e8 02fa02fb 010c273b 3e4e4f8f 9e9e9f06  ......';>NO.....
 804038f8 0709363d 3e56f3d0 d1041418 36375657  ..6=>V......67VW
 80403908 7faaaeaf bd35e012 87898e9e 040d0e11  .....5..........
 80403918 12293134 3a454649 4a4e4f64 655cb6b7  .)14:EFIJNOde\..
 80403928 1b1c0708 0a0b1417 36393aa8 a9d8d909  ........69:.....
 80403938 379091a8 070a3b3e 66698f92 6f5feeef  7.....;>fi..o_..
 80403948 5a629a9b 2728559d a0a1a3a4 a7a8adba  Zb..'(U.........
 80403958 bcc4060b 0c151d3a 3f4551a6 a7cccda0  .......:?EQ.....
 80403968 07191a22 253e3fc5 c6042023 25262833  ..."%>?... #%&(3
 80403978 383a484a 4c505355 56585a5c 5e606365  8:HJLPSUVXZ\^`ce
 80403988 666b7378 7d7f8aa4 aaafb0c0 d0aeaf79  fksx}..........y
 80403998 cc6e6f93 5e227b05 03042d03 6603012f  .no.^"{...-.f../
 804039a8 2e80821d 03310f1c 0424091e 052b0544  .....1...$...+.D
 804039b8 040e2a80 aa062404 24042808 340b0180  ..*...$.$.(.4...
 804039c8 90813709 160a0880 98390363 08093016  ..7......9.c..0.
 804039d8 0521031b 05014038 044b052f 040a0709  .!....@8.K./....
 804039e8 07402027 040c0936 033a051a 07040c07  .@ '...6.:......
 804039f8 50493733 0d33072e 080a8126 524e2808  PI73.3.....&RN(.
 80403a08 2a561c14 17094e04 1e0f430e 19070a06  *V....N...C.....
 80403a18 48082709 750b3f41 2a063b05 0a065106  H.'.u.?A*.;...Q.
 80403a28 01051003 05808b62 1e48080a 80a65e22  .......b.H....^"
 80403a38 450b0a06 0d133907 0a362c04 1080c03c  E.....9..6,....<
 80403a48 64530c48 090a4645 1b480853 1d398107  dS.H..FE.H.S.9..
 80403a58 460a1d03 47493703 0e080a06 39070a81  F...GI7.....9...
 80403a68 361980b7 010f320d 839b6675 0b80c48a  6.....2...fu....
 80403a78 bc842f8f d18247a1 b9823907 2a040260  ../...G...9.*..`
 80403a88 260a460a 28051382 b05b654b 04390711  &.F.(....[eK.9..
 80403a98 40050b02 0e97f808 84d62a09 a2f7811f  @.........*.....
 80403aa8 31031104 08818c89 046b050d 03090710  1........k......
 80403ab8 936080f6 0a73086e 1746809a 140c5709  .`...s.n.F....W.
 80403ac8 19808781 47038542 0f158550 2b80d52d  ....G..B...P+..-
 80403ad8 031a0402 81703a05 01850080 d7294c04  .....p:......)L.
 80403ae8 0a040283 11444c3d 80c23c06 01045505  .....DL=..<...U.
 80403af8 1b340281 0e2c0464 0c560a80 ae381d0d  .4...,.d.V...8..
 80403b08 2c040907 020e0680 9a83d808 0d030d03  ,...............
 80403b18 740c5907 0c140c04 38080a06 2808224e  t.Y.....8...(."N
 80403b28 81540c15 03030507 09190707 09030d07  .T..............
 80403b38 2980cb25 0a84066c 69627261 72792f63  )..%...library/c
 80403b48 6f72652f 7372632f 756e6963 6f64652f  ore/src/unicode/
 80403b58 756e6963 6f64655f 64617461 2e727300  unicode_data.rs.
 80403b68 3f3b4080 00000000 28000000 00000000  ?;@.....(.......
 80403b78 4b000000 28000000 3f3b4080 00000000  K...(...?;@.....
 80403b88 28000000 00000000 57000000 16000000  (.......W.......
 80403b98 3f3b4080 00000000 28000000 00000000  ?;@.....(.......
 80403ba8 52000000 3e000000 f6044080 00000000  R...>.....@.....
 80403bb8 08000000 00000000 08000000 00000000  ................
 80403bc8 da264080 00000000 4572726f 72557466  .&@.....ErrorUtf
 80403bd8 38457272 6f727661 6c69645f 75705f74  8Errorvalid_up_t
 80403be8 6f657272 6f725f6c 656e0000 00000000  oerror_len......
 80403bf8 f6044080 00000000 08000000 00000000  ..@.............
 80403c08 08000000 00000000 6e284080 00000000  ........n(@.....
 80403c18 00030000 83042000 91056000 5d13a000  ...... ...`.]...
 80403c28 1217a01e 0c20e01e ef2c202b 2a30a02b  ..... ..., +*0.+
 80403c38 6fa6602c 02a8e02c 1efbe02d 00fea035  o.`,...,...-...5
 80403c48 9effe035 fd016136 010aa136 240d6137  ...5..a6...6$.a7
 80403c58 ab0ee138 2f182139 301c6146 f31ea14a  ...8/.!90.aF...J
 80403c68 f06a614e 4f6fa14e 9dbc214f 65d1e14f  .jaNOo.N..!Oe..O
 80403c78 00da2150 00e0e151 30e16153 ece2a154  ..!P...Q0.aS...T
 80403c88 d0e8e154 20002e55 f001bf55 00700007  ...T ..U...U.p..
 80403c98 002d0101 01020102 0101480b 30151001  .-........H.0...
 80403ca8 65070206 02020104 23011e1b 5b0b3a09  e.......#...[.:.
 80403cb8 09011804 01090103 01052b03 770f0120  ..........+.w.. 
 80403cc8 37010101 04080401 03070a02 1d013a01  7.............:.
 80403cd8 01010204 08010901 0a021a01 02023901  ..............9.
 80403ce8 04020402 02030301 1e020301 0b023901  ..............9.
 80403cf8 04050102 04011402 16060101 3a010102  ............:...
 80403d08 01040801 07030a02 1e013b01 01010c01  ..........;.....
 80403d18 09012801 03013903 05030104 07020b02  ..(...9.........
 80403d28 1d013a01 02010201 03010502 07020b02  ..:.............
 80403d38 1c023902 01010204 08010901 0a021d01  ..9.............
 80403d48 48010401 02030101 08015101 02070c08  H.........Q.....
 80403d58 62010209 0b064a02 1b010101 0101370e  b.....J.......7.
 80403d68 01050102 050b0124 09016604 01060102  .......$..f.....
 80403d78 02021902 04031004 0d010202 06010f01  ................
 80403d88 00030003 1d031d02 1e024002 01070801  ..........@.....
 80403d98 020b0901 2d037702 22017603 04020901  ....-.w.".v.....
 80403da8 0603db02 02013a01 01070101 01010208  ......:.........
 80403db8 060a0201 30113f04 30070101 05012809  ....0.?.0.....(.
 80403dc8 0c022004 02020103 38010102 03010103  .. .....8.......
 80403dd8 3a080202 9803010d 01070401 06010302  :...............
 80403de8 c63a0105 0001c321 00038d01 60200006  .:.....!....` ..
 80403df8 69020004 010a2002 50020001 03010401  i..... .P.......
 80403e08 19020501 97021a12 0d012608 190b2e03  ..........&.....
 80403e18 30010204 02022701 43060202 02020c01  0.....'.C.......
 80403e28 08012f01 33010103 02020502 01012a02  ../.3.........*.
 80403e38 0801ee01 02010401 00010010 10100002  ................
 80403e48 0001e201 95050003 01020504 28030401  ............(...
 80403e58 a5020004 0002990b b001360f 38033104  ..........6.8.1.
 80403e68 02024503 24050108 3e010c02 34090a04  ..E.$...>...4...
 80403e78 02015f03 02010102 0601a001 03081502  .._.............
 80403e88 39020101 01011601 0e070305 c3080203  9...............
 80403e98 01011701 51010206 01010201 01020102  ....Q...........
 80403ea8 eb010204 06020102 1b025508 02010102  ..........U.....
 80403eb8 6a010101 02060101 65030204 01050009  j.......e.......
 80403ec8 0102f501 0a020101 04019004 02020401  ................
 80403ed8 200a2806 02040801 09060203 2e0d0102   .(.............
 80403ee8 00070106 01015216 02070102 01027a06  ......R.......z.
 80403ef8 03010102 01070101 48020301 01010002  ........H.......
 80403f08 00053b07 00013f04 51010002 00010103  ..;...?.Q.......
 80403f18 04050808 02071e04 94030037 04320801  ...........7.2..
 80403f28 0e011605 010f0007 01110207 01020105  ................
 80403f38 00070004 00076d07 006080f0 0063616c  ......m..`...cal
 80403f48 6c656420 604f7074 696f6e3a 3a756e77  led `Option::unw
 80403f58 72617028 2960206f 6e206120 604e6f6e  rap()` on a `Non
 80403f68 65602076 616c7565 7372632f 6c616e67  e` valuesrc/lang
 80403f78 5f697465 6d732e72 73000000 00000000  _items.rs.......
 80403f88 703f4080 00000000 11000000 00000000  p?@.............
 80403f98 03000000 24000000 50616e69 636b6564  ....$...Panicked
 80403fa8 3a200a00 00000000 a03f4080 00000000  : .......?@.....
 80403fb8 0a000000 00000000 aa3f4080 00000000  .........?@.....
 80403fc8 01000000 00000000 50616e69 636b6564  ........Panicked
 80403fd8 20617420 3a2c2000 d03f4080 00000000   at :, ..?@.....
 80403fe8 0c000000 00000000 dc3f4080 00000000  .........?@.....
 80403ff8 01000000 00000000 dd3f4080 00000000  .........?@.....
 80404008 02000000 00000000 aa3f4080 00000000  .........?@.....
 80404018 01000000 00000000                    ........        
Contents of section .riscv.attributes:
 0000 41340000 00726973 63760001 2a000000  A4...riscv..*...
 0010 04100572 76363469 3270305f 6d327030  ...rv64i2p0_m2p0
 0020 5f613270 305f6632 70305f64 3270305f  _a2p0_f2p0_d2p0_
 0030 63327030 00413400 00007269 73637600  c2p0.A4...riscv.
 0040 012a0000 00041005 72763634 69327030  .*......rv64i2p0
 0050 5f6d3270 305f6132 70305f66 3270305f  _m2p0_a2p0_f2p0_
 0060 64327030 5f633270 30004134 00000072  d2p0_c2p0.A4...r
 0070 69736376 00012a00 00000410 05727636  iscv..*......rv6
 0080 34693270 305f6d32 70305f61 3270305f  4i2p0_m2p0_a2p0_
 0090 66327030 5f643270 305f6332 70300041  f2p0_d2p0_c2p0.A
 00a0 34000000 72697363 7600012a 00000004  4...riscv..*....
 00b0 10057276 36346932 70305f6d 3270305f  ..rv64i2p0_m2p0_
 00c0 61327030 5f663270 305f6432 70305f63  a2p0_f2p0_d2p0_c
 00d0 32703000 41340000 00726973 63760001  2p0.A4...riscv..
 00e0 2a000000 04100572 76363469 3270305f  *......rv64i2p0_
 00f0 6d327030 5f613270 305f6632 70305f64  m2p0_a2p0_f2p0_d
 0100 3270305f 63327030 00413400 00007269  2p0_c2p0.A4...ri
 0110 73637600 012a0000 00041005 72763634  scv..*......rv64
 0120 69327030 5f6d3270 305f6132 70305f66  i2p0_m2p0_a2p0_f
 0130 3270305f 64327030 5f633270 30004134  2p0_d2p0_c2p0.A4
 0140 00000072 69736376 00012a00 00000410  ...riscv..*.....
 0150 05727636 34693270 305f6d32 70305f61  .rv64i2p0_m2p0_a
 0160 3270305f 66327030 5f643270 305f6332  2p0_f2p0_d2p0_c2
 0170 70300041 34000000 72697363 7600012a  p0.A4...riscv..*
 0180 00000004 10057276 36346932 70305f6d  ......rv64i2p0_m
 0190 3270305f 61327030 5f663270 305f6432  2p0_a2p0_f2p0_d2
 01a0 70305f63 32703000 41340000 00726973  p0_c2p0.A4...ris
 01b0 63760001 2a000000 04100572 76363469  cv..*......rv64i
 01c0 3270305f 6d327030 5f613270 305f6632  2p0_m2p0_a2p0_f2
 01d0 70305f64 3270305f 63327030 00413400  p0_d2p0_c2p0.A4.
 01e0 00007269 73637600 012a0000 00041005  ..riscv..*......
 01f0 72763634 69327030 5f6d3270 305f6132  rv64i2p0_m2p0_a2
 0200 70305f66 3270305f 64327030 5f633270  p0_f2p0_d2p0_c2p
 0210 30004134 00000072 69736376 00012a00  0.A4...riscv..*.
 0220 00000410 05727636 34693270 305f6d32  .....rv64i2p0_m2
 0230 70305f61 3270305f 66327030 5f643270  p0_a2p0_f2p0_d2p
 0240 305f6332 70300041 34000000 72697363  0_c2p0.A4...risc
 0250 7600012a 00000004 10057276 36346932  v..*......rv64i2
 0260 70305f6d 3270305f 61327030 5f663270  p0_m2p0_a2p0_f2p
 0270 305f6432 70305f63 32703000 41340000  0_d2p0_c2p0.A4..
 0280 00726973 63760001 2a000000 04100572  .riscv..*......r
 0290 76363469 3270305f 6d327030 5f613270  v64i2p0_m2p0_a2p
 02a0 305f6632 70305f64 3270305f 63327030  0_f2p0_d2p0_c2p0
 02b0 00                                   .               
Contents of section .comment:
 0000 4c696e6b 65723a20 4c4c4420 31312e30  Linker: LLD 11.0
 0010 2e3100                               .1.             

Disassembly of section .text:

0000000080400000 <_start>:
    80400000:	1141                	addi	sp,sp,-16
    80400002:	e406                	sd	ra,8(sp)

0000000080400004 <.LBB0_3>:
    80400004:	00004517          	auipc	a0,0x4
    80400008:	01c50513          	addi	a0,a0,28 # 80404020 <end_bss>

000000008040000c <.LBB0_4>:
    8040000c:	00004597          	auipc	a1,0x4
    80400010:	01458593          	addi	a1,a1,20 # 80404020 <end_bss>
    80400014:	00a5f963          	bgeu	a1,a0,80400026 <.LBB0_4+0x1a>
    80400018:	00158613          	addi	a2,a1,1
    8040001c:	00058023          	sb	zero,0(a1)
    80400020:	85b2                	mv	a1,a2
    80400022:	fea66be3          	bltu	a2,a0,80400018 <.LBB0_4+0xc>
    80400026:	00000097          	auipc	ra,0x0
    8040002a:	034080e7          	jalr	52(ra) # 8040005a <main>
    8040002e:	2501                	sext.w	a0,a0
    80400030:	05d00893          	li	a7,93
    80400034:	4581                	li	a1,0
    80400036:	4601                	li	a2,0
    80400038:	00000073          	ecall

000000008040003c <.LBB0_5>:
    8040003c:	00003517          	auipc	a0,0x3
    80400040:	f0450513          	addi	a0,a0,-252 # 80402f40 <.Lanon.ba00849be08ebf24e3015cbbe684a9cf.0>

0000000080400044 <.LBB0_6>:
    80400044:	00003617          	auipc	a2,0x3
    80400048:	f2460613          	addi	a2,a2,-220 # 80402f68 <.Lanon.ba00849be08ebf24e3015cbbe684a9cf.2>
    8040004c:	45ed                	li	a1,27
    8040004e:	00000097          	auipc	ra,0x0
    80400052:	58a080e7          	jalr	1418(ra) # 804005d8 <_ZN4core9panicking5panic17h4214b4eed8d3f37fE>
	...

0000000080400058 <_ZN4core3ptr48drop_in_place$LT$core..str..error..Utf8Error$GT$17h257c4dd2340a2ca7E>:
    80400058:	8082                	ret

000000008040005a <main>:
    8040005a:	7155                	addi	sp,sp,-208
    8040005c:	e586                	sd	ra,200(sp)
    8040005e:	e1a2                	sd	s0,192(sp)
    80400060:	fd26                	sd	s1,184(sp)
    80400062:	f94a                	sd	s2,176(sp)

0000000080400064 <.LBB1_12>:
    80400064:	00003597          	auipc	a1,0x3
    80400068:	cb458593          	addi	a1,a1,-844 # 80402d18 <.Lanon.fad58de7366495db4650cfefac2fcd61.2>
    8040006c:	4d200513          	li	a0,1234
    80400070:	4665                	li	a2,25
    80400072:	00000097          	auipc	ra,0x0
    80400076:	476080e7          	jalr	1142(ra) # 804004e8 <_ZN8user_lib5write17h8bbea44b183a24cdE>
    8040007a:	55fd                	li	a1,-1
    8040007c:	f8aa                	sd	a0,112(sp)
    8040007e:	18b51263          	bne	a0,a1,80400202 <.LBB1_15+0x24>
    80400082:	0020                	addi	s0,sp,8
    80400084:	01c40513          	addi	a0,s0,28
    80400088:	4659                	li	a2,22
    8040008a:	4581                	li	a1,0
    8040008c:	00003097          	auipc	ra,0x3
    80400090:	c2c080e7          	jalr	-980(ra) # 80402cb8 <memset>

0000000080400094 <.LBB1_13>:
    80400094:	00003517          	auipc	a0,0x3
    80400098:	d5c50513          	addi	a0,a0,-676 # 80402df0 <.Lanon.fad58de7366495db4650cfefac2fcd61.10>
    8040009c:	01954583          	lbu	a1,25(a0)
    804000a0:	01854603          	lbu	a2,24(a0)
    804000a4:	01b50683          	lb	a3,27(a0)
    804000a8:	01a54703          	lbu	a4,26(a0)
    804000ac:	05a2                	slli	a1,a1,0x8
    804000ae:	8dd1                	or	a1,a1,a2
    804000b0:	00869613          	slli	a2,a3,0x8
    804000b4:	8e59                	or	a2,a2,a4
    804000b6:	0642                	slli	a2,a2,0x10
    804000b8:	8dd1                	or	a1,a1,a2
    804000ba:	d02e                	sw	a1,32(sp)
    804000bc:	00154583          	lbu	a1,1(a0)
    804000c0:	00054603          	lbu	a2,0(a0)
    804000c4:	00354683          	lbu	a3,3(a0)
    804000c8:	00254703          	lbu	a4,2(a0)
    804000cc:	05a2                	slli	a1,a1,0x8
    804000ce:	8dd1                	or	a1,a1,a2
    804000d0:	00869613          	slli	a2,a3,0x8
    804000d4:	8e59                	or	a2,a2,a4
    804000d6:	0642                	slli	a2,a2,0x10
    804000d8:	8dd1                	or	a1,a1,a2
    804000da:	00554603          	lbu	a2,5(a0)
    804000de:	00454683          	lbu	a3,4(a0)
    804000e2:	00754703          	lbu	a4,7(a0)
    804000e6:	00654783          	lbu	a5,6(a0)
    804000ea:	0622                	slli	a2,a2,0x8
    804000ec:	8e55                	or	a2,a2,a3
    804000ee:	00871693          	slli	a3,a4,0x8
    804000f2:	8edd                	or	a3,a3,a5
    804000f4:	06c2                	slli	a3,a3,0x10
    804000f6:	8e55                	or	a2,a2,a3
    804000f8:	1602                	slli	a2,a2,0x20
    804000fa:	8dd1                	or	a1,a1,a2
    804000fc:	e42e                	sd	a1,8(sp)
    804000fe:	00954583          	lbu	a1,9(a0)
    80400102:	00854603          	lbu	a2,8(a0)
    80400106:	00b54683          	lbu	a3,11(a0)
    8040010a:	00a54703          	lbu	a4,10(a0)
    8040010e:	05a2                	slli	a1,a1,0x8
    80400110:	8dd1                	or	a1,a1,a2
    80400112:	00869613          	slli	a2,a3,0x8
    80400116:	8e59                	or	a2,a2,a4
    80400118:	0642                	slli	a2,a2,0x10
    8040011a:	8dd1                	or	a1,a1,a2
    8040011c:	00d54603          	lbu	a2,13(a0)
    80400120:	00c54683          	lbu	a3,12(a0)
    80400124:	00f54703          	lbu	a4,15(a0)
    80400128:	00e54783          	lbu	a5,14(a0)
    8040012c:	0622                	slli	a2,a2,0x8
    8040012e:	8e55                	or	a2,a2,a3
    80400130:	00871693          	slli	a3,a4,0x8
    80400134:	8edd                	or	a3,a3,a5
    80400136:	06c2                	slli	a3,a3,0x10
    80400138:	8e55                	or	a2,a2,a3
    8040013a:	1602                	slli	a2,a2,0x20
    8040013c:	8dd1                	or	a1,a1,a2
    8040013e:	e82e                	sd	a1,16(sp)
    80400140:	01154583          	lbu	a1,17(a0)
    80400144:	01054603          	lbu	a2,16(a0)
    80400148:	01354683          	lbu	a3,19(a0)
    8040014c:	01254703          	lbu	a4,18(a0)
    80400150:	05a2                	slli	a1,a1,0x8
    80400152:	8dd1                	or	a1,a1,a2
    80400154:	00869613          	slli	a2,a3,0x8
    80400158:	8e59                	or	a2,a2,a4
    8040015a:	0642                	slli	a2,a2,0x10
    8040015c:	8dd1                	or	a1,a1,a2
    8040015e:	01554603          	lbu	a2,21(a0)
    80400162:	01454683          	lbu	a3,20(a0)
    80400166:	01754703          	lbu	a4,23(a0)
    8040016a:	01654503          	lbu	a0,22(a0)
    8040016e:	0622                	slli	a2,a2,0x8
    80400170:	8e55                	or	a2,a2,a3
    80400172:	00871693          	slli	a3,a4,0x8
    80400176:	8d55                	or	a0,a0,a3
    80400178:	0542                	slli	a0,a0,0x10
    8040017a:	8d51                	or	a0,a0,a2
    8040017c:	1502                	slli	a0,a0,0x20
    8040017e:	8d4d                	or	a0,a0,a1
    80400180:	ec2a                	sd	a0,24(sp)
    80400182:	0108                	addi	a0,sp,128
    80400184:	4671                	li	a2,28
    80400186:	85a2                	mv	a1,s0
    80400188:	00001097          	auipc	ra,0x1
    8040018c:	646080e7          	jalr	1606(ra) # 804017ce <_ZN4core3str8converts9from_utf817h36a155da9055aca2E>
    80400190:	650a                	ld	a0,128(sp)
    80400192:	4585                	li	a1,1
    80400194:	0ab50e63          	beq	a0,a1,80400250 <.LBB1_19+0x14>
    80400198:	642a                	ld	s0,136(sp)
    8040019a:	64ca                	ld	s1,144(sp)
    8040019c:	4505                	li	a0,1
    8040019e:	85a2                	mv	a1,s0
    804001a0:	8626                	mv	a2,s1
    804001a2:	00000097          	auipc	ra,0x0
    804001a6:	346080e7          	jalr	838(ra) # 804004e8 <_ZN8user_lib5write17h8bbea44b183a24cdE>
    804001aa:	e0aa                	sd	a0,64(sp)
    804001ac:	e4a6                	sd	s1,72(sp)
    804001ae:	0c951963          	bne	a0,s1,80400280 <.LBB1_22+0x18>
    804001b2:	4511                	li	a0,4
    804001b4:	10957563          	bgeu	a0,s1,804002be <.LBB1_26>
    804001b8:	4905                	li	s2,1
    804001ba:	4505                	li	a0,1
    804001bc:	4615                	li	a2,5
    804001be:	4495                	li	s1,5
    804001c0:	85a2                	mv	a1,s0
    804001c2:	00000097          	auipc	ra,0x0
    804001c6:	326080e7          	jalr	806(ra) # 804004e8 <_ZN8user_lib5write17h8bbea44b183a24cdE>
    804001ca:	e4aa                	sd	a0,72(sp)
    804001cc:	10951463          	bne	a0,s1,804002d4 <.LBB1_26+0x16>

00000000804001d0 <.LBB1_14>:
    804001d0:	00003517          	auipc	a0,0x3
    804001d4:	cb850513          	addi	a0,a0,-840 # 80402e88 <.Lanon.fad58de7366495db4650cfefac2fcd61.17>
    804001d8:	e12a                	sd	a0,128(sp)
    804001da:	e54a                	sd	s2,136(sp)
    804001dc:	e902                	sd	zero,144(sp)

00000000804001de <.LBB1_15>:
    804001de:	00003517          	auipc	a0,0x3
    804001e2:	cba50513          	addi	a0,a0,-838 # 80402e98 <anon.bf3b0bf79290804f3467300b3397dd5f.0.llvm.6976190099123248542>
    804001e6:	f12a                	sd	a0,160(sp)
    804001e8:	f502                	sd	zero,168(sp)
    804001ea:	0108                	addi	a0,sp,128
    804001ec:	00000097          	auipc	ra,0x0
    804001f0:	298080e7          	jalr	664(ra) # 80400484 <_ZN8user_lib7console5print17h31f9643b5be97a5dE>
    804001f4:	4501                	li	a0,0
    804001f6:	794a                	ld	s2,176(sp)
    804001f8:	74ea                	ld	s1,184(sp)
    804001fa:	640e                	ld	s0,192(sp)
    804001fc:	60ae                	ld	ra,200(sp)
    804001fe:	6169                	addi	sp,sp,208
    80400200:	8082                	ret
    80400202:	1888                	addi	a0,sp,112
    80400204:	fcaa                	sd	a0,120(sp)

0000000080400206 <.LBB1_16>:
    80400206:	00003517          	auipc	a0,0x3
    8040020a:	b3a50513          	addi	a0,a0,-1222 # 80402d40 <.Lanon.fad58de7366495db4650cfefac2fcd61.2+0x28>
    8040020e:	e8aa                	sd	a0,80(sp)
    80400210:	18a8                	addi	a0,sp,120
    80400212:	e12a                	sd	a0,128(sp)

0000000080400214 <.LBB1_17>:
    80400214:	00000517          	auipc	a0,0x0
    80400218:	10e50513          	addi	a0,a0,270 # 80400322 <_ZN42_$LT$$RF$T$u20$as$u20$core..fmt..Debug$GT$3fmt17h403ebe4f169d4e19E>
    8040021c:	e52a                	sd	a0,136(sp)
    8040021e:	088c                	addi	a1,sp,80
    80400220:	e92e                	sd	a1,144(sp)
    80400222:	ed2a                	sd	a0,152(sp)

0000000080400224 <.LBB1_18>:
    80400224:	00003517          	auipc	a0,0x3
    80400228:	b6c50513          	addi	a0,a0,-1172 # 80402d90 <.Lanon.fad58de7366495db4650cfefac2fcd61.7>
    8040022c:	e42a                	sd	a0,8(sp)
    8040022e:	450d                	li	a0,3
    80400230:	e82a                	sd	a0,16(sp)
    80400232:	ec02                	sd	zero,24(sp)
    80400234:	0108                	addi	a0,sp,128
    80400236:	f42a                	sd	a0,40(sp)
    80400238:	4509                	li	a0,2
    8040023a:	f82a                	sd	a0,48(sp)

000000008040023c <.LBB1_19>:
    8040023c:	00003597          	auipc	a1,0x3
    80400240:	b9c58593          	addi	a1,a1,-1124 # 80402dd8 <.Lanon.fad58de7366495db4650cfefac2fcd61.9>
    80400244:	0028                	addi	a0,sp,8
    80400246:	00000097          	auipc	ra,0x0
    8040024a:	3fe080e7          	jalr	1022(ra) # 80400644 <_ZN4core9panicking9panic_fmt17ha4e041b5d1f17023E>
    8040024e:	0000                	unimp
    80400250:	654a                	ld	a0,144(sp)
    80400252:	65aa                	ld	a1,136(sp)
    80400254:	ecaa                	sd	a0,88(sp)
    80400256:	e8ae                	sd	a1,80(sp)

0000000080400258 <.LBB1_20>:
    80400258:	00003517          	auipc	a0,0x3
    8040025c:	a7050513          	addi	a0,a0,-1424 # 80402cc8 <.Lanon.fad58de7366495db4650cfefac2fcd61.0>

0000000080400260 <.LBB1_21>:
    80400260:	00003697          	auipc	a3,0x3
    80400264:	a9868693          	addi	a3,a3,-1384 # 80402cf8 <.Lanon.fad58de7366495db4650cfefac2fcd61.1>

0000000080400268 <.LBB1_22>:
    80400268:	00003717          	auipc	a4,0x3
    8040026c:	ba870713          	addi	a4,a4,-1112 # 80402e10 <.Lanon.fad58de7366495db4650cfefac2fcd61.11>
    80400270:	0890                	addi	a2,sp,80
    80400272:	02b00593          	li	a1,43
    80400276:	00000097          	auipc	ra,0x0
    8040027a:	302080e7          	jalr	770(ra) # 80400578 <_ZN4core6option18expect_none_failed17hf4b8b266798017eaE>
    8040027e:	0000                	unimp
    80400280:	0088                	addi	a0,sp,64
    80400282:	f8aa                	sd	a0,112(sp)
    80400284:	00a8                	addi	a0,sp,72
    80400286:	fcaa                	sd	a0,120(sp)
    80400288:	1888                	addi	a0,sp,112
    8040028a:	e8aa                	sd	a0,80(sp)

000000008040028c <.LBB1_23>:
    8040028c:	00000517          	auipc	a0,0x0
    80400290:	09650513          	addi	a0,a0,150 # 80400322 <_ZN42_$LT$$RF$T$u20$as$u20$core..fmt..Debug$GT$3fmt17h403ebe4f169d4e19E>
    80400294:	ecaa                	sd	a0,88(sp)
    80400296:	18ac                	addi	a1,sp,120
    80400298:	f0ae                	sd	a1,96(sp)
    8040029a:	f4aa                	sd	a0,104(sp)

000000008040029c <.LBB1_24>:
    8040029c:	00003517          	auipc	a0,0x3
    804002a0:	af450513          	addi	a0,a0,-1292 # 80402d90 <.Lanon.fad58de7366495db4650cfefac2fcd61.7>
    804002a4:	e12a                	sd	a0,128(sp)
    804002a6:	450d                	li	a0,3
    804002a8:	e52a                	sd	a0,136(sp)
    804002aa:	e902                	sd	zero,144(sp)
    804002ac:	0888                	addi	a0,sp,80
    804002ae:	f12a                	sd	a0,160(sp)
    804002b0:	4509                	li	a0,2
    804002b2:	f52a                	sd	a0,168(sp)

00000000804002b4 <.LBB1_25>:
    804002b4:	00003597          	auipc	a1,0x3
    804002b8:	b7458593          	addi	a1,a1,-1164 # 80402e28 <.Lanon.fad58de7366495db4650cfefac2fcd61.12>
    804002bc:	a8a9                	j	80400316 <.LBB1_30+0x8>

00000000804002be <.LBB1_26>:
    804002be:	00003617          	auipc	a2,0x3
    804002c2:	b8260613          	addi	a2,a2,-1150 # 80402e40 <.Lanon.fad58de7366495db4650cfefac2fcd61.13>
    804002c6:	4515                	li	a0,5
    804002c8:	85a6                	mv	a1,s1
    804002ca:	00001097          	auipc	ra,0x1
    804002ce:	484080e7          	jalr	1156(ra) # 8040174e <_ZN4core5slice5index24slice_end_index_len_fail17h397499141087200aE>
    804002d2:	0000                	unimp
    804002d4:	00a8                	addi	a0,sp,72
    804002d6:	f8aa                	sd	a0,112(sp)

00000000804002d8 <.LBB1_27>:
    804002d8:	00003517          	auipc	a0,0x3
    804002dc:	a7050513          	addi	a0,a0,-1424 # 80402d48 <.Lanon.fad58de7366495db4650cfefac2fcd61.2+0x30>
    804002e0:	fcaa                	sd	a0,120(sp)
    804002e2:	1888                	addi	a0,sp,112
    804002e4:	e8aa                	sd	a0,80(sp)

00000000804002e6 <.LBB1_28>:
    804002e6:	00000517          	auipc	a0,0x0
    804002ea:	03c50513          	addi	a0,a0,60 # 80400322 <_ZN42_$LT$$RF$T$u20$as$u20$core..fmt..Debug$GT$3fmt17h403ebe4f169d4e19E>
    804002ee:	ecaa                	sd	a0,88(sp)
    804002f0:	18ac                	addi	a1,sp,120
    804002f2:	f0ae                	sd	a1,96(sp)
    804002f4:	f4aa                	sd	a0,104(sp)

00000000804002f6 <.LBB1_29>:
    804002f6:	00003517          	auipc	a0,0x3
    804002fa:	a9a50513          	addi	a0,a0,-1382 # 80402d90 <.Lanon.fad58de7366495db4650cfefac2fcd61.7>
    804002fe:	e12a                	sd	a0,128(sp)
    80400300:	450d                	li	a0,3
    80400302:	e52a                	sd	a0,136(sp)
    80400304:	e902                	sd	zero,144(sp)
    80400306:	0888                	addi	a0,sp,80
    80400308:	f12a                	sd	a0,160(sp)
    8040030a:	4509                	li	a0,2
    8040030c:	f52a                	sd	a0,168(sp)

000000008040030e <.LBB1_30>:
    8040030e:	00003597          	auipc	a1,0x3
    80400312:	b4a58593          	addi	a1,a1,-1206 # 80402e58 <.Lanon.fad58de7366495db4650cfefac2fcd61.15>
    80400316:	0108                	addi	a0,sp,128
    80400318:	00000097          	auipc	ra,0x0
    8040031c:	32c080e7          	jalr	812(ra) # 80400644 <_ZN4core9panicking9panic_fmt17ha4e041b5d1f17023E>
	...

0000000080400322 <_ZN42_$LT$$RF$T$u20$as$u20$core..fmt..Debug$GT$3fmt17h403ebe4f169d4e19E>:
    80400322:	1101                	addi	sp,sp,-32
    80400324:	ec06                	sd	ra,24(sp)
    80400326:	e822                	sd	s0,16(sp)
    80400328:	e426                	sd	s1,8(sp)
    8040032a:	6104                	ld	s1,0(a0)
    8040032c:	842e                	mv	s0,a1
    8040032e:	852e                	mv	a0,a1
    80400330:	00001097          	auipc	ra,0x1
    80400334:	03c080e7          	jalr	60(ra) # 8040136c <_ZN4core3fmt9Formatter15debug_lower_hex17hffada68515a2cdf7E>
    80400338:	c919                	beqz	a0,8040034e <_ZN42_$LT$$RF$T$u20$as$u20$core..fmt..Debug$GT$3fmt17h403ebe4f169d4e19E+0x2c>
    8040033a:	8526                	mv	a0,s1
    8040033c:	85a2                	mv	a1,s0
    8040033e:	64a2                	ld	s1,8(sp)
    80400340:	6442                	ld	s0,16(sp)
    80400342:	60e2                	ld	ra,24(sp)
    80400344:	6105                	addi	sp,sp,32
    80400346:	00002317          	auipc	t1,0x2
    8040034a:	c6430067          	jr	-924(t1) # 80401faa <_ZN4core3fmt3num53_$LT$impl$u20$core..fmt..LowerHex$u20$for$u20$i64$GT$3fmt17he21e11f173f31e15E>
    8040034e:	8522                	mv	a0,s0
    80400350:	00001097          	auipc	ra,0x1
    80400354:	026080e7          	jalr	38(ra) # 80401376 <_ZN4core3fmt9Formatter15debug_upper_hex17h3e8dade1475f5ac4E>
    80400358:	c919                	beqz	a0,8040036e <_ZN42_$LT$$RF$T$u20$as$u20$core..fmt..Debug$GT$3fmt17h403ebe4f169d4e19E+0x4c>
    8040035a:	8526                	mv	a0,s1
    8040035c:	85a2                	mv	a1,s0
    8040035e:	64a2                	ld	s1,8(sp)
    80400360:	6442                	ld	s0,16(sp)
    80400362:	60e2                	ld	ra,24(sp)
    80400364:	6105                	addi	sp,sp,32
    80400366:	00002317          	auipc	t1,0x2
    8040036a:	cc430067          	jr	-828(t1) # 8040202a <_ZN4core3fmt3num53_$LT$impl$u20$core..fmt..UpperHex$u20$for$u20$i64$GT$3fmt17h7a5b1e38fb0bc5b9E>
    8040036e:	8526                	mv	a0,s1
    80400370:	85a2                	mv	a1,s0
    80400372:	64a2                	ld	s1,8(sp)
    80400374:	6442                	ld	s0,16(sp)
    80400376:	60e2                	ld	ra,24(sp)
    80400378:	6105                	addi	sp,sp,32
    8040037a:	00002317          	auipc	t1,0x2
    8040037e:	fbc30067          	jr	-68(t1) # 80402336 <_ZN4core3fmt3num3imp52_$LT$impl$u20$core..fmt..Display$u20$for$u20$i64$GT$3fmt17h1927f4d6977c31a1E>

0000000080400382 <_ZN4core3ptr37drop_in_place$LT$core..fmt..Error$GT$17h27481fde7fc64708E.llvm.6976190099123248542>:
    80400382:	8082                	ret

0000000080400384 <_ZN50_$LT$$RF$mut$u20$W$u20$as$u20$core..fmt..Write$GT$10write_char17h0f159a9c81b4b6d2E.llvm.6976190099123248542>:
    80400384:	1141                	addi	sp,sp,-16
    80400386:	0005851b          	sext.w	a0,a1
    8040038a:	08000613          	li	a2,128
    8040038e:	c602                	sw	zero,12(sp)
    80400390:	00c57663          	bgeu	a0,a2,8040039c <_ZN50_$LT$$RF$mut$u20$W$u20$as$u20$core..fmt..Write$GT$10write_char17h0f159a9c81b4b6d2E.llvm.6976190099123248542+0x18>
    80400394:	00b10623          	sb	a1,12(sp)
    80400398:	4605                	li	a2,1
    8040039a:	a841                	j	8040042a <_ZN50_$LT$$RF$mut$u20$W$u20$as$u20$core..fmt..Write$GT$10write_char17h0f159a9c81b4b6d2E.llvm.6976190099123248542+0xa6>
    8040039c:	00b5d51b          	srliw	a0,a1,0xb
    804003a0:	ed19                	bnez	a0,804003be <_ZN50_$LT$$RF$mut$u20$W$u20$as$u20$core..fmt..Write$GT$10write_char17h0f159a9c81b4b6d2E.llvm.6976190099123248542+0x3a>
    804003a2:	0065d513          	srli	a0,a1,0x6
    804003a6:	0c056513          	ori	a0,a0,192
    804003aa:	00a10623          	sb	a0,12(sp)
    804003ae:	03f5f513          	andi	a0,a1,63
    804003b2:	08056513          	ori	a0,a0,128
    804003b6:	00a106a3          	sb	a0,13(sp)
    804003ba:	4609                	li	a2,2
    804003bc:	a0bd                	j	8040042a <_ZN50_$LT$$RF$mut$u20$W$u20$as$u20$core..fmt..Write$GT$10write_char17h0f159a9c81b4b6d2E.llvm.6976190099123248542+0xa6>
    804003be:	0105d51b          	srliw	a0,a1,0x10
    804003c2:	e51d                	bnez	a0,804003f0 <_ZN50_$LT$$RF$mut$u20$W$u20$as$u20$core..fmt..Write$GT$10write_char17h0f159a9c81b4b6d2E.llvm.6976190099123248542+0x6c>
    804003c4:	00c5d51b          	srliw	a0,a1,0xc
    804003c8:	0e056513          	ori	a0,a0,224
    804003cc:	00a10623          	sb	a0,12(sp)
    804003d0:	0065d51b          	srliw	a0,a1,0x6
    804003d4:	03f57513          	andi	a0,a0,63
    804003d8:	08056513          	ori	a0,a0,128
    804003dc:	00a106a3          	sb	a0,13(sp)
    804003e0:	03f5f513          	andi	a0,a1,63
    804003e4:	08056513          	ori	a0,a0,128
    804003e8:	00a10723          	sb	a0,14(sp)
    804003ec:	460d                	li	a2,3
    804003ee:	a835                	j	8040042a <_ZN50_$LT$$RF$mut$u20$W$u20$as$u20$core..fmt..Write$GT$10write_char17h0f159a9c81b4b6d2E.llvm.6976190099123248542+0xa6>
    804003f0:	0125d51b          	srliw	a0,a1,0x12
    804003f4:	0f056513          	ori	a0,a0,240
    804003f8:	00a10623          	sb	a0,12(sp)
    804003fc:	00c5d51b          	srliw	a0,a1,0xc
    80400400:	03f57513          	andi	a0,a0,63
    80400404:	08056513          	ori	a0,a0,128
    80400408:	00a106a3          	sb	a0,13(sp)
    8040040c:	0065d51b          	srliw	a0,a1,0x6
    80400410:	03f57513          	andi	a0,a0,63
    80400414:	08056513          	ori	a0,a0,128
    80400418:	00a10723          	sb	a0,14(sp)
    8040041c:	03f5f513          	andi	a0,a1,63
    80400420:	08056513          	ori	a0,a0,128
    80400424:	00a107a3          	sb	a0,15(sp)
    80400428:	4611                	li	a2,4
    8040042a:	006c                	addi	a1,sp,12
    8040042c:	4505                	li	a0,1
    8040042e:	04000893          	li	a7,64
    80400432:	00000073          	ecall
    80400436:	4501                	li	a0,0
    80400438:	0141                	addi	sp,sp,16
    8040043a:	8082                	ret

000000008040043c <_ZN50_$LT$$RF$mut$u20$W$u20$as$u20$core..fmt..Write$GT$9write_fmt17hd6d3038dca3d722aE.llvm.6976190099123248542>:
    8040043c:	7139                	addi	sp,sp,-64
    8040043e:	fc06                	sd	ra,56(sp)
    80400440:	6108                	ld	a0,0(a0)
    80400442:	7590                	ld	a2,40(a1)
    80400444:	7194                	ld	a3,32(a1)
    80400446:	e02a                	sd	a0,0(sp)
    80400448:	f832                	sd	a2,48(sp)
    8040044a:	f436                	sd	a3,40(sp)
    8040044c:	6d88                	ld	a0,24(a1)
    8040044e:	6990                	ld	a2,16(a1)
    80400450:	6594                	ld	a3,8(a1)
    80400452:	618c                	ld	a1,0(a1)
    80400454:	f02a                	sd	a0,32(sp)
    80400456:	ec32                	sd	a2,24(sp)
    80400458:	e836                	sd	a3,16(sp)
    8040045a:	e42e                	sd	a1,8(sp)

000000008040045c <.LBB2_1>:
    8040045c:	00003597          	auipc	a1,0x3
    80400460:	a3c58593          	addi	a1,a1,-1476 # 80402e98 <anon.bf3b0bf79290804f3467300b3397dd5f.0.llvm.6976190099123248542>
    80400464:	850a                	mv	a0,sp
    80400466:	0030                	addi	a2,sp,8
    80400468:	00001097          	auipc	ra,0x1
    8040046c:	808080e7          	jalr	-2040(ra) # 80400c70 <_ZN4core3fmt5write17h338141860f5a80fbE>
    80400470:	70e2                	ld	ra,56(sp)
    80400472:	6121                	addi	sp,sp,64
    80400474:	8082                	ret

0000000080400476 <_ZN50_$LT$$RF$mut$u20$W$u20$as$u20$core..fmt..Write$GT$9write_str17h9faab66cb71c9333E.llvm.6976190099123248542>:
    80400476:	4505                	li	a0,1
    80400478:	04000893          	li	a7,64
    8040047c:	00000073          	ecall
    80400480:	4501                	li	a0,0
    80400482:	8082                	ret

0000000080400484 <_ZN8user_lib7console5print17h31f9643b5be97a5dE>:
    80400484:	7139                	addi	sp,sp,-64
    80400486:	fc06                	sd	ra,56(sp)
    80400488:	750c                	ld	a1,40(a0)
    8040048a:	7110                	ld	a2,32(a0)
    8040048c:	0034                	addi	a3,sp,8
    8040048e:	e036                	sd	a3,0(sp)
    80400490:	f82e                	sd	a1,48(sp)
    80400492:	f432                	sd	a2,40(sp)
    80400494:	6d0c                	ld	a1,24(a0)
    80400496:	6910                	ld	a2,16(a0)
    80400498:	6514                	ld	a3,8(a0)
    8040049a:	6108                	ld	a0,0(a0)
    8040049c:	f02e                	sd	a1,32(sp)
    8040049e:	ec32                	sd	a2,24(sp)
    804004a0:	e836                	sd	a3,16(sp)
    804004a2:	e42a                	sd	a0,8(sp)

00000000804004a4 <.LBB5_3>:
    804004a4:	00003597          	auipc	a1,0x3
    804004a8:	9f458593          	addi	a1,a1,-1548 # 80402e98 <anon.bf3b0bf79290804f3467300b3397dd5f.0.llvm.6976190099123248542>
    804004ac:	850a                	mv	a0,sp
    804004ae:	0030                	addi	a2,sp,8
    804004b0:	00000097          	auipc	ra,0x0
    804004b4:	7c0080e7          	jalr	1984(ra) # 80400c70 <_ZN4core3fmt5write17h338141860f5a80fbE>
    804004b8:	e501                	bnez	a0,804004c0 <.LBB5_4>
    804004ba:	70e2                	ld	ra,56(sp)
    804004bc:	6121                	addi	sp,sp,64
    804004be:	8082                	ret

00000000804004c0 <.LBB5_4>:
    804004c0:	00003517          	auipc	a0,0x3
    804004c4:	a0850513          	addi	a0,a0,-1528 # 80402ec8 <anon.bf3b0bf79290804f3467300b3397dd5f.1.llvm.6976190099123248542>

00000000804004c8 <.LBB5_5>:
    804004c8:	00003697          	auipc	a3,0x3
    804004cc:	a3068693          	addi	a3,a3,-1488 # 80402ef8 <anon.bf3b0bf79290804f3467300b3397dd5f.2.llvm.6976190099123248542>

00000000804004d0 <.LBB5_6>:
    804004d0:	00003717          	auipc	a4,0x3
    804004d4:	a5870713          	addi	a4,a4,-1448 # 80402f28 <anon.bf3b0bf79290804f3467300b3397dd5f.4.llvm.6976190099123248542>
    804004d8:	0030                	addi	a2,sp,8
    804004da:	02b00593          	li	a1,43
    804004de:	00000097          	auipc	ra,0x0
    804004e2:	09a080e7          	jalr	154(ra) # 80400578 <_ZN4core6option18expect_none_failed17hf4b8b266798017eaE>
	...

00000000804004e8 <_ZN8user_lib5write17h8bbea44b183a24cdE>:
    804004e8:	04000893          	li	a7,64
    804004ec:	00000073          	ecall
    804004f0:	8082                	ret

00000000804004f2 <_ZN4core3ops8function6FnOnce9call_once17hbe6f1b732a2946a4E>:
    804004f2:	6108                	ld	a0,0(a0)
    804004f4:	a001                	j	804004f4 <_ZN4core3ops8function6FnOnce9call_once17hbe6f1b732a2946a4E+0x2>

00000000804004f6 <_ZN4core3ptr102drop_in_place$LT$$RF$core..iter..adapters..copied..Copied$LT$core..slice..iter..Iter$LT$u8$GT$$GT$$GT$17h2c14ec9a62b1a876E>:
    804004f6:	8082                	ret

00000000804004f8 <_ZN71_$LT$core..ops..range..Range$LT$Idx$GT$$u20$as$u20$core..fmt..Debug$GT$3fmt17h0c19ef341f8f601cE>:
    804004f8:	715d                	addi	sp,sp,-80
    804004fa:	e486                	sd	ra,72(sp)
    804004fc:	e0a2                	sd	s0,64(sp)
    804004fe:	fc26                	sd	s1,56(sp)
    80400500:	842e                	mv	s0,a1
    80400502:	84aa                	mv	s1,a0
    80400504:	00002097          	auipc	ra,0x2
    80400508:	ba6080e7          	jalr	-1114(ra) # 804020aa <_ZN4core3fmt3num52_$LT$impl$u20$core..fmt..Debug$u20$for$u20$usize$GT$3fmt17h65700e50f045d1fbE>
    8040050c:	e51d                	bnez	a0,8040053a <.LBB76_5+0x18>
    8040050e:	7008                	ld	a0,32(s0)
    80400510:	740c                	ld	a1,40(s0)

0000000080400512 <.LBB76_4>:
    80400512:	00003617          	auipc	a2,0x3
    80400516:	a7660613          	addi	a2,a2,-1418 # 80402f88 <.Lanon.9d4bfc86079e95d674f3cded52b1db19.141>
    8040051a:	e432                	sd	a2,8(sp)
    8040051c:	4605                	li	a2,1
    8040051e:	e832                	sd	a2,16(sp)
    80400520:	ec02                	sd	zero,24(sp)

0000000080400522 <.LBB76_5>:
    80400522:	00003617          	auipc	a2,0x3
    80400526:	a5e60613          	addi	a2,a2,-1442 # 80402f80 <.Lanon.9d4bfc86079e95d674f3cded52b1db19.33>
    8040052a:	f432                	sd	a2,40(sp)
    8040052c:	f802                	sd	zero,48(sp)
    8040052e:	0030                	addi	a2,sp,8
    80400530:	00000097          	auipc	ra,0x0
    80400534:	740080e7          	jalr	1856(ra) # 80400c70 <_ZN4core3fmt5write17h338141860f5a80fbE>
    80400538:	c519                	beqz	a0,80400546 <.LBB76_5+0x24>
    8040053a:	4505                	li	a0,1
    8040053c:	74e2                	ld	s1,56(sp)
    8040053e:	6406                	ld	s0,64(sp)
    80400540:	60a6                	ld	ra,72(sp)
    80400542:	6161                	addi	sp,sp,80
    80400544:	8082                	ret
    80400546:	00848513          	addi	a0,s1,8
    8040054a:	85a2                	mv	a1,s0
    8040054c:	74e2                	ld	s1,56(sp)
    8040054e:	6406                	ld	s0,64(sp)
    80400550:	60a6                	ld	ra,72(sp)
    80400552:	6161                	addi	sp,sp,80
    80400554:	00002317          	auipc	t1,0x2
    80400558:	b5630067          	jr	-1194(t1) # 804020aa <_ZN4core3fmt3num52_$LT$impl$u20$core..fmt..Debug$u20$for$u20$usize$GT$3fmt17h65700e50f045d1fbE>

000000008040055c <_ZN36_$LT$T$u20$as$u20$core..any..Any$GT$7type_id17h7108e12ad9db6507E>:
    8040055c:	0160f537          	lui	a0,0x160f
    80400560:	6275051b          	addiw	a0,a0,1575
    80400564:	0536                	slli	a0,a0,0xd
    80400566:	3d750513          	addi	a0,a0,983 # 160f3d7 <BASE_ADDRESS-0x7edf0c29>
    8040056a:	0532                	slli	a0,a0,0xc
    8040056c:	f8150513          	addi	a0,a0,-127
    80400570:	0532                	slli	a0,a0,0xc
    80400572:	f4250513          	addi	a0,a0,-190
    80400576:	8082                	ret

0000000080400578 <_ZN4core6option18expect_none_failed17hf4b8b266798017eaE>:
    80400578:	7119                	addi	sp,sp,-128
    8040057a:	fc86                	sd	ra,120(sp)
    8040057c:	e42a                	sd	a0,8(sp)
    8040057e:	e82e                	sd	a1,16(sp)
    80400580:	ec32                	sd	a2,24(sp)
    80400582:	f036                	sd	a3,32(sp)
    80400584:	0028                	addi	a0,sp,8
    80400586:	ecaa                	sd	a0,88(sp)

0000000080400588 <.LBB118_1>:
    80400588:	00002517          	auipc	a0,0x2
    8040058c:	3be50513          	addi	a0,a0,958 # 80402946 <_ZN44_$LT$$RF$T$u20$as$u20$core..fmt..Display$GT$3fmt17h0ab56ae6638005b3E>
    80400590:	f0aa                	sd	a0,96(sp)
    80400592:	0828                	addi	a0,sp,24
    80400594:	f4aa                	sd	a0,104(sp)

0000000080400596 <.LBB118_2>:
    80400596:	00002517          	auipc	a0,0x2
    8040059a:	3a850513          	addi	a0,a0,936 # 8040293e <_ZN42_$LT$$RF$T$u20$as$u20$core..fmt..Debug$GT$3fmt17hc803731d5e879d1bE>
    8040059e:	f8aa                	sd	a0,112(sp)

00000000804005a0 <.LBB118_3>:
    804005a0:	00003517          	auipc	a0,0x3
    804005a4:	a5850513          	addi	a0,a0,-1448 # 80402ff8 <.Lanon.9d4bfc86079e95d674f3cded52b1db19.178>
    804005a8:	f42a                	sd	a0,40(sp)
    804005aa:	4509                	li	a0,2
    804005ac:	f82a                	sd	a0,48(sp)
    804005ae:	fc02                	sd	zero,56(sp)
    804005b0:	08ac                	addi	a1,sp,88
    804005b2:	e4ae                	sd	a1,72(sp)
    804005b4:	e8aa                	sd	a0,80(sp)
    804005b6:	1028                	addi	a0,sp,40
    804005b8:	85ba                	mv	a1,a4
    804005ba:	00000097          	auipc	ra,0x0
    804005be:	08a080e7          	jalr	138(ra) # 80400644 <_ZN4core9panicking9panic_fmt17ha4e041b5d1f17023E>
	...

00000000804005c4 <_ZN4core5panic9PanicInfo7message17ha124ea628bb1593aE>:
    804005c4:	6908                	ld	a0,16(a0)
    804005c6:	8082                	ret

00000000804005c8 <_ZN4core5panic9PanicInfo8location17h1a36f39edfc37a5bE>:
    804005c8:	6d08                	ld	a0,24(a0)
    804005ca:	8082                	ret

00000000804005cc <_ZN4core5panic8Location4file17h3a63c909928b6622E>:
    804005cc:	6110                	ld	a2,0(a0)
    804005ce:	650c                	ld	a1,8(a0)
    804005d0:	8532                	mv	a0,a2
    804005d2:	8082                	ret

00000000804005d4 <_ZN4core5panic8Location4line17h438064cf29667b6aE>:
    804005d4:	4908                	lw	a0,16(a0)
    804005d6:	8082                	ret

00000000804005d8 <_ZN4core9panicking5panic17h4214b4eed8d3f37fE>:
    804005d8:	715d                	addi	sp,sp,-80
    804005da:	e486                	sd	ra,72(sp)
    804005dc:	fc2a                	sd	a0,56(sp)
    804005de:	e0ae                	sd	a1,64(sp)
    804005e0:	1828                	addi	a0,sp,56
    804005e2:	e42a                	sd	a0,8(sp)
    804005e4:	4505                	li	a0,1
    804005e6:	e82a                	sd	a0,16(sp)
    804005e8:	ec02                	sd	zero,24(sp)

00000000804005ea <.LBB129_1>:
    804005ea:	00003517          	auipc	a0,0x3
    804005ee:	99650513          	addi	a0,a0,-1642 # 80402f80 <.Lanon.9d4bfc86079e95d674f3cded52b1db19.33>
    804005f2:	f42a                	sd	a0,40(sp)
    804005f4:	f802                	sd	zero,48(sp)
    804005f6:	0028                	addi	a0,sp,8
    804005f8:	85b2                	mv	a1,a2
    804005fa:	00000097          	auipc	ra,0x0
    804005fe:	04a080e7          	jalr	74(ra) # 80400644 <_ZN4core9panicking9panic_fmt17ha4e041b5d1f17023E>
	...

0000000080400604 <_ZN4core9panicking18panic_bounds_check17ha760e6d8204f3836E>:
    80400604:	7159                	addi	sp,sp,-112
    80400606:	f486                	sd	ra,104(sp)
    80400608:	e42a                	sd	a0,8(sp)
    8040060a:	e82e                	sd	a1,16(sp)
    8040060c:	0808                	addi	a0,sp,16
    8040060e:	e4aa                	sd	a0,72(sp)

0000000080400610 <.LBB130_1>:
    80400610:	00002517          	auipc	a0,0x2
    80400614:	efc50513          	addi	a0,a0,-260 # 8040250c <_ZN4core3fmt3num3imp52_$LT$impl$u20$core..fmt..Display$u20$for$u20$u64$GT$3fmt17h056fc685b1c7ea74E>
    80400618:	e8aa                	sd	a0,80(sp)
    8040061a:	002c                	addi	a1,sp,8
    8040061c:	ecae                	sd	a1,88(sp)
    8040061e:	f0aa                	sd	a0,96(sp)

0000000080400620 <.LBB130_2>:
    80400620:	00003517          	auipc	a0,0x3
    80400624:	a9050513          	addi	a0,a0,-1392 # 804030b0 <.Lanon.9d4bfc86079e95d674f3cded52b1db19.188>
    80400628:	ec2a                	sd	a0,24(sp)
    8040062a:	4509                	li	a0,2
    8040062c:	f02a                	sd	a0,32(sp)
    8040062e:	f402                	sd	zero,40(sp)
    80400630:	00ac                	addi	a1,sp,72
    80400632:	fc2e                	sd	a1,56(sp)
    80400634:	e0aa                	sd	a0,64(sp)
    80400636:	0828                	addi	a0,sp,24
    80400638:	85b2                	mv	a1,a2
    8040063a:	00000097          	auipc	ra,0x0
    8040063e:	00a080e7          	jalr	10(ra) # 80400644 <_ZN4core9panicking9panic_fmt17ha4e041b5d1f17023E>
	...

0000000080400644 <_ZN4core9panicking9panic_fmt17ha4e041b5d1f17023E>:
    80400644:	7179                	addi	sp,sp,-48
    80400646:	f406                	sd	ra,40(sp)

0000000080400648 <.LBB131_1>:
    80400648:	00003617          	auipc	a2,0x3
    8040064c:	93860613          	addi	a2,a2,-1736 # 80402f80 <.Lanon.9d4bfc86079e95d674f3cded52b1db19.33>
    80400650:	e432                	sd	a2,8(sp)

0000000080400652 <.LBB131_2>:
    80400652:	00003617          	auipc	a2,0x3
    80400656:	9c660613          	addi	a2,a2,-1594 # 80403018 <.Lanon.9d4bfc86079e95d674f3cded52b1db19.179>
    8040065a:	e832                	sd	a2,16(sp)
    8040065c:	ec2a                	sd	a0,24(sp)
    8040065e:	f02e                	sd	a1,32(sp)
    80400660:	0028                	addi	a0,sp,8
    80400662:	00002097          	auipc	ra,0x2
    80400666:	51a080e7          	jalr	1306(ra) # 80402b7c <rust_begin_unwind>
	...

000000008040066c <_ZN68_$LT$core..fmt..builders..PadAdapter$u20$as$u20$core..fmt..Write$GT$9write_str17hd6b2cc874e13c1a3E>:
    8040066c:	715d                	addi	sp,sp,-80
    8040066e:	e486                	sd	ra,72(sp)
    80400670:	e0a2                	sd	s0,64(sp)
    80400672:	fc26                	sd	s1,56(sp)
    80400674:	f84a                	sd	s2,48(sp)
    80400676:	f44e                	sd	s3,40(sp)
    80400678:	f052                	sd	s4,32(sp)
    8040067a:	ec56                	sd	s5,24(sp)
    8040067c:	e85a                	sd	s6,16(sp)
    8040067e:	e45e                	sd	s7,8(sp)
    80400680:	e062                	sd	s8,0(sp)
    80400682:	ca7d                	beqz	a2,80400778 <.LBB133_30+0x1a>
    80400684:	84b2                	mv	s1,a2
    80400686:	89ae                	mv	s3,a1
    80400688:	892a                	mv	s2,a0
    8040068a:	4a3d                	li	s4,15
    8040068c:	4aa9                	li	s5,10
    8040068e:	fbf00b13          	li	s6,-65
    80400692:	4b85                	li	s7,1
    80400694:	a809                	j	804006a6 <_ZN68_$LT$core..fmt..builders..PadAdapter$u20$as$u20$core..fmt..Write$GT$9write_str17hd6b2cc874e13c1a3E+0x3a>
    80400696:	6d94                	ld	a3,24(a1)
    80400698:	85ce                	mv	a1,s3
    8040069a:	8622                	mv	a2,s0
    8040069c:	9682                	jalr	a3
    8040069e:	ed79                	bnez	a0,8040077c <.LBB133_30+0x1e>
    804006a0:	8c81                	sub	s1,s1,s0
    804006a2:	89e2                	mv	s3,s8
    804006a4:	c8f1                	beqz	s1,80400778 <.LBB133_30+0x1a>
    804006a6:	01093503          	ld	a0,16(s2)
    804006aa:	00054503          	lbu	a0,0(a0)
    804006ae:	cd09                	beqz	a0,804006c8 <.LBB133_29+0xe>
    804006b0:	00893583          	ld	a1,8(s2)
    804006b4:	00093503          	ld	a0,0(s2)
    804006b8:	6d94                	ld	a3,24(a1)

00000000804006ba <.LBB133_29>:
    804006ba:	00003597          	auipc	a1,0x3
    804006be:	8fe58593          	addi	a1,a1,-1794 # 80402fb8 <.Lanon.9d4bfc86079e95d674f3cded52b1db19.141+0x30>
    804006c2:	4611                	li	a2,4
    804006c4:	9682                	jalr	a3
    804006c6:	e95d                	bnez	a0,8040077c <.LBB133_30+0x1e>
    804006c8:	4401                	li	s0,0
    804006ca:	8626                	mv	a2,s1
    804006cc:	a029                	j	804006d6 <.LBB133_29+0x1c>
    804006ce:	40848633          	sub	a2,s1,s0
    804006d2:	0484e963          	bltu	s1,s0,80400724 <.LBB133_29+0x6a>
    804006d6:	008985b3          	add	a1,s3,s0
    804006da:	02ca6063          	bltu	s4,a2,804006fa <.LBB133_29+0x40>
    804006de:	c239                	beqz	a2,80400724 <.LBB133_29+0x6a>
    804006e0:	4601                	li	a2,0
    804006e2:	40848533          	sub	a0,s1,s0
    804006e6:	00c586b3          	add	a3,a1,a2
    804006ea:	0006c683          	lbu	a3,0(a3)
    804006ee:	01568e63          	beq	a3,s5,8040070a <.LBB133_29+0x50>
    804006f2:	0605                	addi	a2,a2,1
    804006f4:	fec519e3          	bne	a0,a2,804006e6 <.LBB133_29+0x2c>
    804006f8:	a035                	j	80400724 <.LBB133_29+0x6a>
    804006fa:	4529                	li	a0,10
    804006fc:	00001097          	auipc	ra,0x1
    80400700:	f0a080e7          	jalr	-246(ra) # 80401606 <_ZN4core5slice6memchr19memchr_general_case17h70a7e3c60d21a994E>
    80400704:	03751063          	bne	a0,s7,80400724 <.LBB133_29+0x6a>
    80400708:	862e                	mv	a2,a1
    8040070a:	00860533          	add	a0,a2,s0
    8040070e:	00150413          	addi	s0,a0,1
    80400712:	fa957ee3          	bgeu	a0,s1,804006ce <.LBB133_29+0x14>
    80400716:	954e                	add	a0,a0,s3
    80400718:	00054503          	lbu	a0,0(a0)
    8040071c:	fb5519e3          	bne	a0,s5,804006ce <.LBB133_29+0x14>
    80400720:	4505                	li	a0,1
    80400722:	a019                	j	80400728 <.LBB133_29+0x6e>
    80400724:	4501                	li	a0,0
    80400726:	8426                	mv	s0,s1
    80400728:	01093583          	ld	a1,16(s2)
    8040072c:	00a58023          	sb	a0,0(a1)
    80400730:	00093503          	ld	a0,0(s2)
    80400734:	00893583          	ld	a1,8(s2)
    80400738:	00898c33          	add	s8,s3,s0
    8040073c:	f4848de3          	beq	s1,s0,80400696 <_ZN68_$LT$core..fmt..builders..PadAdapter$u20$as$u20$core..fmt..Write$GT$9write_str17hd6b2cc874e13c1a3E+0x2a>
    80400740:	04947b63          	bgeu	s0,s1,80400796 <.LBB133_31>
    80400744:	000c0603          	lb	a2,0(s8)
    80400748:	04cb5763          	bge	s6,a2,80400796 <.LBB133_31>
    8040074c:	6d94                	ld	a3,24(a1)
    8040074e:	85ce                	mv	a1,s3
    80400750:	8622                	mv	a2,s0
    80400752:	9682                	jalr	a3
    80400754:	e505                	bnez	a0,8040077c <.LBB133_30+0x1e>
    80400756:	000c0503          	lb	a0,0(s8)
    8040075a:	f4ab43e3          	blt	s6,a0,804006a0 <_ZN68_$LT$core..fmt..builders..PadAdapter$u20$as$u20$core..fmt..Write$GT$9write_str17hd6b2cc874e13c1a3E+0x34>

000000008040075e <.LBB133_30>:
    8040075e:	00003717          	auipc	a4,0x3
    80400762:	9ba70713          	addi	a4,a4,-1606 # 80403118 <.Lanon.9d4bfc86079e95d674f3cded52b1db19.193>
    80400766:	854e                	mv	a0,s3
    80400768:	85a6                	mv	a1,s1
    8040076a:	8622                	mv	a2,s0
    8040076c:	86a6                	mv	a3,s1
    8040076e:	00001097          	auipc	ra,0x1
    80400772:	2ce080e7          	jalr	718(ra) # 80401a3c <_ZN4core3str16slice_error_fail17he9562343589499f6E>
    80400776:	0000                	unimp
    80400778:	4501                	li	a0,0
    8040077a:	a011                	j	8040077e <.LBB133_30+0x20>
    8040077c:	4505                	li	a0,1
    8040077e:	6c02                	ld	s8,0(sp)
    80400780:	6ba2                	ld	s7,8(sp)
    80400782:	6b42                	ld	s6,16(sp)
    80400784:	6ae2                	ld	s5,24(sp)
    80400786:	7a02                	ld	s4,32(sp)
    80400788:	79a2                	ld	s3,40(sp)
    8040078a:	7942                	ld	s2,48(sp)
    8040078c:	74e2                	ld	s1,56(sp)
    8040078e:	6406                	ld	s0,64(sp)
    80400790:	60a6                	ld	ra,72(sp)
    80400792:	6161                	addi	sp,sp,80
    80400794:	8082                	ret

0000000080400796 <.LBB133_31>:
    80400796:	00003717          	auipc	a4,0x3
    8040079a:	96a70713          	addi	a4,a4,-1686 # 80403100 <.Lanon.9d4bfc86079e95d674f3cded52b1db19.192>
    8040079e:	854e                	mv	a0,s3
    804007a0:	85a6                	mv	a1,s1
    804007a2:	4601                	li	a2,0
    804007a4:	86a2                	mv	a3,s0
    804007a6:	00001097          	auipc	ra,0x1
    804007aa:	296080e7          	jalr	662(ra) # 80401a3c <_ZN4core3str16slice_error_fail17he9562343589499f6E>
	...

00000000804007b0 <_ZN4core3fmt8builders11DebugStruct5field17h376881aa7803673dE>:
    804007b0:	7135                	addi	sp,sp,-160
    804007b2:	ed06                	sd	ra,152(sp)
    804007b4:	e922                	sd	s0,144(sp)
    804007b6:	e526                	sd	s1,136(sp)
    804007b8:	e14a                	sd	s2,128(sp)
    804007ba:	fcce                	sd	s3,120(sp)
    804007bc:	f8d2                	sd	s4,112(sp)
    804007be:	f4d6                	sd	s5,104(sp)
    804007c0:	f0da                	sd	s6,96(sp)
    804007c2:	842a                	mv	s0,a0
    804007c4:	00854503          	lbu	a0,8(a0)
    804007c8:	4b05                	li	s6,1
    804007ca:	4485                	li	s1,1
    804007cc:	c105                	beqz	a0,804007ec <_ZN4core3fmt8builders11DebugStruct5field17h376881aa7803673dE+0x3c>
    804007ce:	00940423          	sb	s1,8(s0)
    804007d2:	016404a3          	sb	s6,9(s0)
    804007d6:	8522                	mv	a0,s0
    804007d8:	7b06                	ld	s6,96(sp)
    804007da:	7aa6                	ld	s5,104(sp)
    804007dc:	7a46                	ld	s4,112(sp)
    804007de:	79e6                	ld	s3,120(sp)
    804007e0:	690a                	ld	s2,128(sp)
    804007e2:	64aa                	ld	s1,136(sp)
    804007e4:	644a                	ld	s0,144(sp)
    804007e6:	60ea                	ld	ra,152(sp)
    804007e8:	610d                	addi	sp,sp,160
    804007ea:	8082                	ret
    804007ec:	89ba                	mv	s3,a4
    804007ee:	8936                	mv	s2,a3
    804007f0:	8a32                	mv	s4,a2
    804007f2:	8aae                	mv	s5,a1
    804007f4:	6008                	ld	a0,0(s0)
    804007f6:	03056583          	lwu	a1,48(a0)
    804007fa:	00944603          	lbu	a2,9(s0)
    804007fe:	0045f693          	andi	a3,a1,4
    80400802:	00163613          	seqz	a2,a2
    80400806:	e699                	bnez	a3,80400814 <.LBB134_18+0xa>
    80400808:	ea45                	bnez	a2,804008b8 <.LBB134_23>

000000008040080a <.LBB134_18>:
    8040080a:	00003597          	auipc	a1,0x3
    8040080e:	92b58593          	addi	a1,a1,-1749 # 80403135 <.Lanon.9d4bfc86079e95d674f3cded52b1db19.196>
    80400812:	a07d                	j	804008c0 <.LBB134_23+0x8>
    80400814:	ce19                	beqz	a2,80400832 <.LBB134_19+0x16>
    80400816:	750c                	ld	a1,40(a0)
    80400818:	7108                	ld	a0,32(a0)
    8040081a:	6d94                	ld	a3,24(a1)

000000008040081c <.LBB134_19>:
    8040081c:	00003597          	auipc	a1,0x3
    80400820:	91458593          	addi	a1,a1,-1772 # 80403130 <.Lanon.9d4bfc86079e95d674f3cded52b1db19.194>
    80400824:	460d                	li	a2,3
    80400826:	9682                	jalr	a3
    80400828:	4485                	li	s1,1
    8040082a:	f155                	bnez	a0,804007ce <_ZN4core3fmt8builders11DebugStruct5field17h376881aa7803673dE+0x1e>
    8040082c:	6008                	ld	a0,0(s0)
    8040082e:	03056583          	lwu	a1,48(a0)
    80400832:	4485                	li	s1,1
    80400834:	00910fa3          	sb	s1,31(sp)
    80400838:	7110                	ld	a2,32(a0)
    8040083a:	7514                	ld	a3,40(a0)
    8040083c:	e032                	sd	a2,0(sp)
    8040083e:	e436                	sd	a3,8(sp)
    80400840:	01f10613          	addi	a2,sp,31
    80400844:	e832                	sd	a2,16(sp)
    80400846:	5950                	lw	a2,52(a0)
    80400848:	03850683          	lb	a3,56(a0)
    8040084c:	6118                	ld	a4,0(a0)
    8040084e:	651c                	ld	a5,8(a0)
    80400850:	01053803          	ld	a6,16(a0)
    80400854:	6d08                	ld	a0,24(a0)
    80400856:	c8ae                	sw	a1,80(sp)
    80400858:	cab2                	sw	a2,84(sp)
    8040085a:	04d10c23          	sb	a3,88(sp)
    8040085e:	f03a                	sd	a4,32(sp)
    80400860:	f43e                	sd	a5,40(sp)
    80400862:	f842                	sd	a6,48(sp)
    80400864:	fc2a                	sd	a0,56(sp)
    80400866:	850a                	mv	a0,sp
    80400868:	e0aa                	sd	a0,64(sp)

000000008040086a <.LBB134_20>:
    8040086a:	00003597          	auipc	a1,0x3
    8040086e:	86658593          	addi	a1,a1,-1946 # 804030d0 <.Lanon.9d4bfc86079e95d674f3cded52b1db19.190>
    80400872:	e4ae                	sd	a1,72(sp)
    80400874:	85d6                	mv	a1,s5
    80400876:	8652                	mv	a2,s4
    80400878:	00000097          	auipc	ra,0x0
    8040087c:	df4080e7          	jalr	-524(ra) # 8040066c <_ZN68_$LT$core..fmt..builders..PadAdapter$u20$as$u20$core..fmt..Write$GT$9write_str17hd6b2cc874e13c1a3E>
    80400880:	f539                	bnez	a0,804007ce <_ZN4core3fmt8builders11DebugStruct5field17h376881aa7803673dE+0x1e>

0000000080400882 <.LBB134_21>:
    80400882:	00002597          	auipc	a1,0x2
    80400886:	77158593          	addi	a1,a1,1905 # 80402ff3 <.Lanon.9d4bfc86079e95d674f3cded52b1db19.177>
    8040088a:	850a                	mv	a0,sp
    8040088c:	4609                	li	a2,2
    8040088e:	00000097          	auipc	ra,0x0
    80400892:	dde080e7          	jalr	-546(ra) # 8040066c <_ZN68_$LT$core..fmt..builders..PadAdapter$u20$as$u20$core..fmt..Write$GT$9write_str17hd6b2cc874e13c1a3E>
    80400896:	fd05                	bnez	a0,804007ce <_ZN4core3fmt8builders11DebugStruct5field17h376881aa7803673dE+0x1e>
    80400898:	0189b603          	ld	a2,24(s3)
    8040089c:	100c                	addi	a1,sp,32
    8040089e:	854a                	mv	a0,s2
    804008a0:	9602                	jalr	a2
    804008a2:	f515                	bnez	a0,804007ce <_ZN4core3fmt8builders11DebugStruct5field17h376881aa7803673dE+0x1e>
    804008a4:	65a6                	ld	a1,72(sp)
    804008a6:	6506                	ld	a0,64(sp)
    804008a8:	6d94                	ld	a3,24(a1)

00000000804008aa <.LBB134_22>:
    804008aa:	00003597          	auipc	a1,0x3
    804008ae:	88958593          	addi	a1,a1,-1911 # 80403133 <.Lanon.9d4bfc86079e95d674f3cded52b1db19.195>
    804008b2:	4609                	li	a2,2
    804008b4:	9682                	jalr	a3
    804008b6:	a889                	j	80400908 <.LBB134_24+0x1c>

00000000804008b8 <.LBB134_23>:
    804008b8:	00003597          	auipc	a1,0x3
    804008bc:	87f58593          	addi	a1,a1,-1921 # 80403137 <.Lanon.9d4bfc86079e95d674f3cded52b1db19.197>
    804008c0:	7514                	ld	a3,40(a0)
    804008c2:	7108                	ld	a0,32(a0)
    804008c4:	6e94                	ld	a3,24(a3)
    804008c6:	00266613          	ori	a2,a2,2
    804008ca:	9682                	jalr	a3
    804008cc:	4485                	li	s1,1
    804008ce:	f101                	bnez	a0,804007ce <_ZN4core3fmt8builders11DebugStruct5field17h376881aa7803673dE+0x1e>
    804008d0:	6008                	ld	a0,0(s0)
    804008d2:	750c                	ld	a1,40(a0)
    804008d4:	7108                	ld	a0,32(a0)
    804008d6:	6d94                	ld	a3,24(a1)
    804008d8:	85d6                	mv	a1,s5
    804008da:	8652                	mv	a2,s4
    804008dc:	9682                	jalr	a3
    804008de:	4485                	li	s1,1
    804008e0:	ee0517e3          	bnez	a0,804007ce <_ZN4core3fmt8builders11DebugStruct5field17h376881aa7803673dE+0x1e>
    804008e4:	6008                	ld	a0,0(s0)
    804008e6:	750c                	ld	a1,40(a0)
    804008e8:	7108                	ld	a0,32(a0)
    804008ea:	6d94                	ld	a3,24(a1)

00000000804008ec <.LBB134_24>:
    804008ec:	00002597          	auipc	a1,0x2
    804008f0:	70758593          	addi	a1,a1,1799 # 80402ff3 <.Lanon.9d4bfc86079e95d674f3cded52b1db19.177>
    804008f4:	4609                	li	a2,2
    804008f6:	9682                	jalr	a3
    804008f8:	4485                	li	s1,1
    804008fa:	ec051ae3          	bnez	a0,804007ce <_ZN4core3fmt8builders11DebugStruct5field17h376881aa7803673dE+0x1e>
    804008fe:	600c                	ld	a1,0(s0)
    80400900:	0189b603          	ld	a2,24(s3)
    80400904:	854a                	mv	a0,s2
    80400906:	9602                	jalr	a2
    80400908:	84aa                	mv	s1,a0
    8040090a:	b5d1                	j	804007ce <_ZN4core3fmt8builders11DebugStruct5field17h376881aa7803673dE+0x1e>

000000008040090c <_ZN4core3fmt8builders10DebugTuple5field17h968d9eaf966503caE>:
    8040090c:	7175                	addi	sp,sp,-144
    8040090e:	e506                	sd	ra,136(sp)
    80400910:	e122                	sd	s0,128(sp)
    80400912:	fca6                	sd	s1,120(sp)
    80400914:	f8ca                	sd	s2,112(sp)
    80400916:	f4ce                	sd	s3,104(sp)
    80400918:	842a                	mv	s0,a0
    8040091a:	01054503          	lbu	a0,16(a0)
    8040091e:	4485                	li	s1,1
    80400920:	e179                	bnez	a0,804009e6 <.LBB137_18+0x24>
    80400922:	89b2                	mv	s3,a2
    80400924:	892e                	mv	s2,a1
    80400926:	6008                	ld	a0,0(s0)
    80400928:	03056583          	lwu	a1,48(a0)
    8040092c:	6410                	ld	a2,8(s0)
    8040092e:	0045f693          	andi	a3,a1,4
    80400932:	00163613          	seqz	a2,a2
    80400936:	e699                	bnez	a3,80400944 <.LBB137_14+0xa>
    80400938:	e649                	bnez	a2,804009c2 <.LBB137_18>

000000008040093a <.LBB137_14>:
    8040093a:	00002597          	auipc	a1,0x2
    8040093e:	7fb58593          	addi	a1,a1,2043 # 80403135 <.Lanon.9d4bfc86079e95d674f3cded52b1db19.196>
    80400942:	a061                	j	804009ca <.LBB137_18+0x8>
    80400944:	ce11                	beqz	a2,80400960 <.LBB137_15+0x14>
    80400946:	750c                	ld	a1,40(a0)
    80400948:	7108                	ld	a0,32(a0)
    8040094a:	6d94                	ld	a3,24(a1)

000000008040094c <.LBB137_15>:
    8040094c:	00002597          	auipc	a1,0x2
    80400950:	7f158593          	addi	a1,a1,2033 # 8040313d <.Lanon.9d4bfc86079e95d674f3cded52b1db19.203>
    80400954:	4609                	li	a2,2
    80400956:	9682                	jalr	a3
    80400958:	e559                	bnez	a0,804009e6 <.LBB137_18+0x24>
    8040095a:	6008                	ld	a0,0(s0)
    8040095c:	03056583          	lwu	a1,48(a0)
    80400960:	4485                	li	s1,1
    80400962:	029103a3          	sb	s1,39(sp)
    80400966:	7110                	ld	a2,32(a0)
    80400968:	7514                	ld	a3,40(a0)
    8040096a:	e432                	sd	a2,8(sp)
    8040096c:	e836                	sd	a3,16(sp)
    8040096e:	02710613          	addi	a2,sp,39
    80400972:	ec32                	sd	a2,24(sp)
    80400974:	5950                	lw	a2,52(a0)
    80400976:	03850683          	lb	a3,56(a0)
    8040097a:	6118                	ld	a4,0(a0)
    8040097c:	651c                	ld	a5,8(a0)
    8040097e:	01053803          	ld	a6,16(a0)
    80400982:	6d08                	ld	a0,24(a0)
    80400984:	ccae                	sw	a1,88(sp)
    80400986:	ceb2                	sw	a2,92(sp)
    80400988:	06d10023          	sb	a3,96(sp)
    8040098c:	f43a                	sd	a4,40(sp)
    8040098e:	f83e                	sd	a5,48(sp)
    80400990:	fc42                	sd	a6,56(sp)
    80400992:	e0aa                	sd	a0,64(sp)
    80400994:	0028                	addi	a0,sp,8
    80400996:	0189b603          	ld	a2,24(s3)
    8040099a:	e4aa                	sd	a0,72(sp)

000000008040099c <.LBB137_16>:
    8040099c:	00002517          	auipc	a0,0x2
    804009a0:	73450513          	addi	a0,a0,1844 # 804030d0 <.Lanon.9d4bfc86079e95d674f3cded52b1db19.190>
    804009a4:	e8aa                	sd	a0,80(sp)
    804009a6:	102c                	addi	a1,sp,40
    804009a8:	854a                	mv	a0,s2
    804009aa:	9602                	jalr	a2
    804009ac:	ed0d                	bnez	a0,804009e6 <.LBB137_18+0x24>
    804009ae:	65c6                	ld	a1,80(sp)
    804009b0:	6526                	ld	a0,72(sp)
    804009b2:	6d94                	ld	a3,24(a1)

00000000804009b4 <.LBB137_17>:
    804009b4:	00002597          	auipc	a1,0x2
    804009b8:	77f58593          	addi	a1,a1,1919 # 80403133 <.Lanon.9d4bfc86079e95d674f3cded52b1db19.195>
    804009bc:	4609                	li	a2,2
    804009be:	9682                	jalr	a3
    804009c0:	a015                	j	804009e4 <.LBB137_18+0x22>

00000000804009c2 <.LBB137_18>:
    804009c2:	00002597          	auipc	a1,0x2
    804009c6:	77d58593          	addi	a1,a1,1917 # 8040313f <.Lanon.9d4bfc86079e95d674f3cded52b1db19.204>
    804009ca:	7514                	ld	a3,40(a0)
    804009cc:	7108                	ld	a0,32(a0)
    804009ce:	6e94                	ld	a3,24(a3)
    804009d0:	4709                	li	a4,2
    804009d2:	40c70633          	sub	a2,a4,a2
    804009d6:	9682                	jalr	a3
    804009d8:	e519                	bnez	a0,804009e6 <.LBB137_18+0x24>
    804009da:	600c                	ld	a1,0(s0)
    804009dc:	0189b603          	ld	a2,24(s3)
    804009e0:	854a                	mv	a0,s2
    804009e2:	9602                	jalr	a2
    804009e4:	84aa                	mv	s1,a0
    804009e6:	6408                	ld	a0,8(s0)
    804009e8:	00940823          	sb	s1,16(s0)
    804009ec:	0505                	addi	a0,a0,1
    804009ee:	e408                	sd	a0,8(s0)
    804009f0:	8522                	mv	a0,s0
    804009f2:	79a6                	ld	s3,104(sp)
    804009f4:	7946                	ld	s2,112(sp)
    804009f6:	74e6                	ld	s1,120(sp)
    804009f8:	640a                	ld	s0,128(sp)
    804009fa:	60aa                	ld	ra,136(sp)
    804009fc:	6149                	addi	sp,sp,144
    804009fe:	8082                	ret

0000000080400a00 <_ZN4core3fmt5Write10write_char17h8aeb772118eba9e2E>:
    80400a00:	1141                	addi	sp,sp,-16
    80400a02:	e406                	sd	ra,8(sp)
    80400a04:	862e                	mv	a2,a1
    80400a06:	2581                	sext.w	a1,a1
    80400a08:	08000693          	li	a3,128
    80400a0c:	c202                	sw	zero,4(sp)
    80400a0e:	00d5fd63          	bgeu	a1,a3,80400a28 <_ZN4core3fmt5Write10write_char17h8aeb772118eba9e2E+0x28>
    80400a12:	004c                	addi	a1,sp,4
    80400a14:	00c10223          	sb	a2,4(sp)
    80400a18:	4605                	li	a2,1
    80400a1a:	00000097          	auipc	ra,0x0
    80400a1e:	c52080e7          	jalr	-942(ra) # 8040066c <_ZN68_$LT$core..fmt..builders..PadAdapter$u20$as$u20$core..fmt..Write$GT$9write_str17hd6b2cc874e13c1a3E>
    80400a22:	60a2                	ld	ra,8(sp)
    80400a24:	0141                	addi	sp,sp,16
    80400a26:	8082                	ret
    80400a28:	00b6559b          	srliw	a1,a2,0xb
    80400a2c:	e595                	bnez	a1,80400a58 <_ZN4core3fmt5Write10write_char17h8aeb772118eba9e2E+0x58>
    80400a2e:	004c                	addi	a1,sp,4
    80400a30:	00665693          	srli	a3,a2,0x6
    80400a34:	0c06e693          	ori	a3,a3,192
    80400a38:	00d10223          	sb	a3,4(sp)
    80400a3c:	03f67613          	andi	a2,a2,63
    80400a40:	08066613          	ori	a2,a2,128
    80400a44:	00c102a3          	sb	a2,5(sp)
    80400a48:	4609                	li	a2,2
    80400a4a:	00000097          	auipc	ra,0x0
    80400a4e:	c22080e7          	jalr	-990(ra) # 8040066c <_ZN68_$LT$core..fmt..builders..PadAdapter$u20$as$u20$core..fmt..Write$GT$9write_str17hd6b2cc874e13c1a3E>
    80400a52:	60a2                	ld	ra,8(sp)
    80400a54:	0141                	addi	sp,sp,16
    80400a56:	8082                	ret
    80400a58:	0106569b          	srliw	a3,a2,0x10
    80400a5c:	004c                	addi	a1,sp,4
    80400a5e:	ee8d                	bnez	a3,80400a98 <_ZN4core3fmt5Write10write_char17h8aeb772118eba9e2E+0x98>
    80400a60:	00c6569b          	srliw	a3,a2,0xc
    80400a64:	0e06e693          	ori	a3,a3,224
    80400a68:	00d10223          	sb	a3,4(sp)
    80400a6c:	0066569b          	srliw	a3,a2,0x6
    80400a70:	03f6f693          	andi	a3,a3,63
    80400a74:	0806e693          	ori	a3,a3,128
    80400a78:	00d102a3          	sb	a3,5(sp)
    80400a7c:	03f67613          	andi	a2,a2,63
    80400a80:	08066613          	ori	a2,a2,128
    80400a84:	00c10323          	sb	a2,6(sp)
    80400a88:	460d                	li	a2,3
    80400a8a:	00000097          	auipc	ra,0x0
    80400a8e:	be2080e7          	jalr	-1054(ra) # 8040066c <_ZN68_$LT$core..fmt..builders..PadAdapter$u20$as$u20$core..fmt..Write$GT$9write_str17hd6b2cc874e13c1a3E>
    80400a92:	60a2                	ld	ra,8(sp)
    80400a94:	0141                	addi	sp,sp,16
    80400a96:	8082                	ret
    80400a98:	0126569b          	srliw	a3,a2,0x12
    80400a9c:	0f06e693          	ori	a3,a3,240
    80400aa0:	00d10223          	sb	a3,4(sp)
    80400aa4:	00c6569b          	srliw	a3,a2,0xc
    80400aa8:	03f6f693          	andi	a3,a3,63
    80400aac:	0806e693          	ori	a3,a3,128
    80400ab0:	00d102a3          	sb	a3,5(sp)
    80400ab4:	0066569b          	srliw	a3,a2,0x6
    80400ab8:	03f6f693          	andi	a3,a3,63
    80400abc:	0806e693          	ori	a3,a3,128
    80400ac0:	00d10323          	sb	a3,6(sp)
    80400ac4:	03f67613          	andi	a2,a2,63
    80400ac8:	08066613          	ori	a2,a2,128
    80400acc:	00c103a3          	sb	a2,7(sp)
    80400ad0:	4611                	li	a2,4
    80400ad2:	00000097          	auipc	ra,0x0
    80400ad6:	b9a080e7          	jalr	-1126(ra) # 8040066c <_ZN68_$LT$core..fmt..builders..PadAdapter$u20$as$u20$core..fmt..Write$GT$9write_str17hd6b2cc874e13c1a3E>
    80400ada:	60a2                	ld	ra,8(sp)
    80400adc:	0141                	addi	sp,sp,16
    80400ade:	8082                	ret

0000000080400ae0 <_ZN4core3fmt5Write9write_fmt17hddb7215d3127a3d2E>:
    80400ae0:	7139                	addi	sp,sp,-64
    80400ae2:	fc06                	sd	ra,56(sp)
    80400ae4:	7590                	ld	a2,40(a1)
    80400ae6:	7194                	ld	a3,32(a1)
    80400ae8:	e02a                	sd	a0,0(sp)
    80400aea:	f832                	sd	a2,48(sp)
    80400aec:	f436                	sd	a3,40(sp)
    80400aee:	6d88                	ld	a0,24(a1)
    80400af0:	6990                	ld	a2,16(a1)
    80400af2:	6594                	ld	a3,8(a1)
    80400af4:	618c                	ld	a1,0(a1)
    80400af6:	f02a                	sd	a0,32(sp)
    80400af8:	ec32                	sd	a2,24(sp)
    80400afa:	e836                	sd	a3,16(sp)
    80400afc:	e42e                	sd	a1,8(sp)

0000000080400afe <.LBB160_1>:
    80400afe:	00002597          	auipc	a1,0x2
    80400b02:	77258593          	addi	a1,a1,1906 # 80403270 <.Lanon.9d4bfc86079e95d674f3cded52b1db19.228>
    80400b06:	850a                	mv	a0,sp
    80400b08:	0030                	addi	a2,sp,8
    80400b0a:	00000097          	auipc	ra,0x0
    80400b0e:	166080e7          	jalr	358(ra) # 80400c70 <_ZN4core3fmt5write17h338141860f5a80fbE>
    80400b12:	70e2                	ld	ra,56(sp)
    80400b14:	6121                	addi	sp,sp,64
    80400b16:	8082                	ret

0000000080400b18 <_ZN50_$LT$$RF$mut$u20$W$u20$as$u20$core..fmt..Write$GT$9write_str17hfa57a7fc9f8589d2E>:
    80400b18:	6108                	ld	a0,0(a0)
    80400b1a:	00000317          	auipc	t1,0x0
    80400b1e:	b5230067          	jr	-1198(t1) # 8040066c <_ZN68_$LT$core..fmt..builders..PadAdapter$u20$as$u20$core..fmt..Write$GT$9write_str17hd6b2cc874e13c1a3E>

0000000080400b22 <_ZN50_$LT$$RF$mut$u20$W$u20$as$u20$core..fmt..Write$GT$10write_char17h58b6ff904fa9294fE>:
    80400b22:	1141                	addi	sp,sp,-16
    80400b24:	e406                	sd	ra,8(sp)
    80400b26:	862e                	mv	a2,a1
    80400b28:	6108                	ld	a0,0(a0)
    80400b2a:	2581                	sext.w	a1,a1
    80400b2c:	08000693          	li	a3,128
    80400b30:	c202                	sw	zero,4(sp)
    80400b32:	00d5fd63          	bgeu	a1,a3,80400b4c <_ZN50_$LT$$RF$mut$u20$W$u20$as$u20$core..fmt..Write$GT$10write_char17h58b6ff904fa9294fE+0x2a>
    80400b36:	004c                	addi	a1,sp,4
    80400b38:	00c10223          	sb	a2,4(sp)
    80400b3c:	4605                	li	a2,1
    80400b3e:	00000097          	auipc	ra,0x0
    80400b42:	b2e080e7          	jalr	-1234(ra) # 8040066c <_ZN68_$LT$core..fmt..builders..PadAdapter$u20$as$u20$core..fmt..Write$GT$9write_str17hd6b2cc874e13c1a3E>
    80400b46:	60a2                	ld	ra,8(sp)
    80400b48:	0141                	addi	sp,sp,16
    80400b4a:	8082                	ret
    80400b4c:	00b6559b          	srliw	a1,a2,0xb
    80400b50:	e595                	bnez	a1,80400b7c <_ZN50_$LT$$RF$mut$u20$W$u20$as$u20$core..fmt..Write$GT$10write_char17h58b6ff904fa9294fE+0x5a>
    80400b52:	004c                	addi	a1,sp,4
    80400b54:	00665693          	srli	a3,a2,0x6
    80400b58:	0c06e693          	ori	a3,a3,192
    80400b5c:	00d10223          	sb	a3,4(sp)
    80400b60:	03f67613          	andi	a2,a2,63
    80400b64:	08066613          	ori	a2,a2,128
    80400b68:	00c102a3          	sb	a2,5(sp)
    80400b6c:	4609                	li	a2,2
    80400b6e:	00000097          	auipc	ra,0x0
    80400b72:	afe080e7          	jalr	-1282(ra) # 8040066c <_ZN68_$LT$core..fmt..builders..PadAdapter$u20$as$u20$core..fmt..Write$GT$9write_str17hd6b2cc874e13c1a3E>
    80400b76:	60a2                	ld	ra,8(sp)
    80400b78:	0141                	addi	sp,sp,16
    80400b7a:	8082                	ret
    80400b7c:	0106569b          	srliw	a3,a2,0x10
    80400b80:	004c                	addi	a1,sp,4
    80400b82:	ee8d                	bnez	a3,80400bbc <_ZN50_$LT$$RF$mut$u20$W$u20$as$u20$core..fmt..Write$GT$10write_char17h58b6ff904fa9294fE+0x9a>
    80400b84:	00c6569b          	srliw	a3,a2,0xc
    80400b88:	0e06e693          	ori	a3,a3,224
    80400b8c:	00d10223          	sb	a3,4(sp)
    80400b90:	0066569b          	srliw	a3,a2,0x6
    80400b94:	03f6f693          	andi	a3,a3,63
    80400b98:	0806e693          	ori	a3,a3,128
    80400b9c:	00d102a3          	sb	a3,5(sp)
    80400ba0:	03f67613          	andi	a2,a2,63
    80400ba4:	08066613          	ori	a2,a2,128
    80400ba8:	00c10323          	sb	a2,6(sp)
    80400bac:	460d                	li	a2,3
    80400bae:	00000097          	auipc	ra,0x0
    80400bb2:	abe080e7          	jalr	-1346(ra) # 8040066c <_ZN68_$LT$core..fmt..builders..PadAdapter$u20$as$u20$core..fmt..Write$GT$9write_str17hd6b2cc874e13c1a3E>
    80400bb6:	60a2                	ld	ra,8(sp)
    80400bb8:	0141                	addi	sp,sp,16
    80400bba:	8082                	ret
    80400bbc:	0126569b          	srliw	a3,a2,0x12
    80400bc0:	0f06e693          	ori	a3,a3,240
    80400bc4:	00d10223          	sb	a3,4(sp)
    80400bc8:	00c6569b          	srliw	a3,a2,0xc
    80400bcc:	03f6f693          	andi	a3,a3,63
    80400bd0:	0806e693          	ori	a3,a3,128
    80400bd4:	00d102a3          	sb	a3,5(sp)
    80400bd8:	0066569b          	srliw	a3,a2,0x6
    80400bdc:	03f6f693          	andi	a3,a3,63
    80400be0:	0806e693          	ori	a3,a3,128
    80400be4:	00d10323          	sb	a3,6(sp)
    80400be8:	03f67613          	andi	a2,a2,63
    80400bec:	08066613          	ori	a2,a2,128
    80400bf0:	00c103a3          	sb	a2,7(sp)
    80400bf4:	4611                	li	a2,4
    80400bf6:	00000097          	auipc	ra,0x0
    80400bfa:	a76080e7          	jalr	-1418(ra) # 8040066c <_ZN68_$LT$core..fmt..builders..PadAdapter$u20$as$u20$core..fmt..Write$GT$9write_str17hd6b2cc874e13c1a3E>
    80400bfe:	60a2                	ld	ra,8(sp)
    80400c00:	0141                	addi	sp,sp,16
    80400c02:	8082                	ret

0000000080400c04 <_ZN50_$LT$$RF$mut$u20$W$u20$as$u20$core..fmt..Write$GT$9write_fmt17h242554f80beddc1fE>:
    80400c04:	7139                	addi	sp,sp,-64
    80400c06:	fc06                	sd	ra,56(sp)
    80400c08:	6108                	ld	a0,0(a0)
    80400c0a:	7590                	ld	a2,40(a1)
    80400c0c:	7194                	ld	a3,32(a1)
    80400c0e:	e02a                	sd	a0,0(sp)
    80400c10:	f832                	sd	a2,48(sp)
    80400c12:	f436                	sd	a3,40(sp)
    80400c14:	6d88                	ld	a0,24(a1)
    80400c16:	6990                	ld	a2,16(a1)
    80400c18:	6594                	ld	a3,8(a1)
    80400c1a:	618c                	ld	a1,0(a1)
    80400c1c:	f02a                	sd	a0,32(sp)
    80400c1e:	ec32                	sd	a2,24(sp)
    80400c20:	e836                	sd	a3,16(sp)
    80400c22:	e42e                	sd	a1,8(sp)

0000000080400c24 <.LBB163_1>:
    80400c24:	00002597          	auipc	a1,0x2
    80400c28:	64c58593          	addi	a1,a1,1612 # 80403270 <.Lanon.9d4bfc86079e95d674f3cded52b1db19.228>
    80400c2c:	850a                	mv	a0,sp
    80400c2e:	0030                	addi	a2,sp,8
    80400c30:	00000097          	auipc	ra,0x0
    80400c34:	040080e7          	jalr	64(ra) # 80400c70 <_ZN4core3fmt5write17h338141860f5a80fbE>
    80400c38:	70e2                	ld	ra,56(sp)
    80400c3a:	6121                	addi	sp,sp,64
    80400c3c:	8082                	ret

0000000080400c3e <_ZN59_$LT$core..fmt..Arguments$u20$as$u20$core..fmt..Display$GT$3fmt17h6000ae836ac5c51cE>:
    80400c3e:	7139                	addi	sp,sp,-64
    80400c40:	fc06                	sd	ra,56(sp)
    80400c42:	7510                	ld	a2,40(a0)
    80400c44:	7118                	ld	a4,32(a0)
    80400c46:	7194                	ld	a3,32(a1)
    80400c48:	758c                	ld	a1,40(a1)
    80400c4a:	f832                	sd	a2,48(sp)
    80400c4c:	f43a                	sd	a4,40(sp)
    80400c4e:	6d10                	ld	a2,24(a0)
    80400c50:	6918                	ld	a4,16(a0)
    80400c52:	651c                	ld	a5,8(a0)
    80400c54:	6108                	ld	a0,0(a0)
    80400c56:	f032                	sd	a2,32(sp)
    80400c58:	ec3a                	sd	a4,24(sp)
    80400c5a:	e83e                	sd	a5,16(sp)
    80400c5c:	e42a                	sd	a0,8(sp)
    80400c5e:	0030                	addi	a2,sp,8
    80400c60:	8536                	mv	a0,a3
    80400c62:	00000097          	auipc	ra,0x0
    80400c66:	00e080e7          	jalr	14(ra) # 80400c70 <_ZN4core3fmt5write17h338141860f5a80fbE>
    80400c6a:	70e2                	ld	ra,56(sp)
    80400c6c:	6121                	addi	sp,sp,64
    80400c6e:	8082                	ret

0000000080400c70 <_ZN4core3fmt5write17h338141860f5a80fbE>:
    80400c70:	7135                	addi	sp,sp,-160
    80400c72:	ed06                	sd	ra,152(sp)
    80400c74:	e922                	sd	s0,144(sp)
    80400c76:	e526                	sd	s1,136(sp)
    80400c78:	e14a                	sd	s2,128(sp)
    80400c7a:	fcce                	sd	s3,120(sp)
    80400c7c:	f8d2                	sd	s4,112(sp)
    80400c7e:	f4d6                	sd	s5,104(sp)
    80400c80:	f0da                	sd	s6,96(sp)
    80400c82:	ecde                	sd	s7,88(sp)
    80400c84:	e8e2                	sd	s8,80(sp)
    80400c86:	e4e6                	sd	s9,72(sp)
    80400c88:	8432                	mv	s0,a2
    80400c8a:	4605                	li	a2,1
    80400c8c:	1616                	slli	a2,a2,0x25
    80400c8e:	fc32                	sd	a2,56(sp)
    80400c90:	460d                	li	a2,3
    80400c92:	04c10023          	sb	a2,64(sp)
    80400c96:	6804                	ld	s1,16(s0)
    80400c98:	e402                	sd	zero,8(sp)
    80400c9a:	ec02                	sd	zero,24(sp)
    80400c9c:	f42a                	sd	a0,40(sp)
    80400c9e:	f82e                	sd	a1,48(sp)
    80400ca0:	cce9                	beqz	s1,80400d7a <.LBB167_35+0x9e>
    80400ca2:	6c10                	ld	a2,24(s0)
    80400ca4:	00843983          	ld	s3,8(s0)
    80400ca8:	00043903          	ld	s2,0(s0)
    80400cac:	8ace                	mv	s5,s3
    80400cae:	00c9e363          	bltu	s3,a2,80400cb4 <_ZN4core3fmt5write17h338141860f5a80fbE+0x44>
    80400cb2:	8ab2                	mv	s5,a2
    80400cb4:	120a8163          	beqz	s5,80400dd6 <.LBB167_35+0xfa>
    80400cb8:	00093683          	ld	a3,0(s2)
    80400cbc:	00893603          	ld	a2,8(s2)
    80400cc0:	6d98                	ld	a4,24(a1)
    80400cc2:	85b6                	mv	a1,a3
    80400cc4:	9702                	jalr	a4
    80400cc6:	12051663          	bnez	a0,80400df2 <.LBB167_35+0x116>
    80400cca:	02043c03          	ld	s8,32(s0)
    80400cce:	03048493          	addi	s1,s1,48
    80400cd2:	01890c93          	addi	s9,s2,24
    80400cd6:	00810a13          	addi	s4,sp,8
    80400cda:	4b09                	li	s6,2

0000000080400cdc <.LBB167_35>:
    80400cdc:	00000b97          	auipc	s7,0x0
    80400ce0:	816b8b93          	addi	s7,s7,-2026 # 804004f2 <_ZN4core3ops8function6FnOnce9call_once17hbe6f1b732a2946a4E>
    80400ce4:	8456                	mv	s0,s5
    80400ce6:	ff84a503          	lw	a0,-8(s1)
    80400cea:	de2a                	sw	a0,60(sp)
    80400cec:	00048503          	lb	a0,0(s1)
    80400cf0:	04a10023          	sb	a0,64(sp)
    80400cf4:	ffc4a503          	lw	a0,-4(s1)
    80400cf8:	dc2a                	sw	a0,56(sp)
    80400cfa:	fe84b603          	ld	a2,-24(s1)
    80400cfe:	ff04b503          	ld	a0,-16(s1)
    80400d02:	ca19                	beqz	a2,80400d18 <.LBB167_35+0x3c>
    80400d04:	4581                	li	a1,0
    80400d06:	01660c63          	beq	a2,s6,80400d1e <.LBB167_35+0x42>
    80400d0a:	0512                	slli	a0,a0,0x4
    80400d0c:	9562                	add	a0,a0,s8
    80400d0e:	650c                	ld	a1,8(a0)
    80400d10:	01759663          	bne	a1,s7,80400d1c <.LBB167_35+0x40>
    80400d14:	6108                	ld	a0,0(a0)
    80400d16:	6108                	ld	a0,0(a0)
    80400d18:	4585                	li	a1,1
    80400d1a:	a011                	j	80400d1e <.LBB167_35+0x42>
    80400d1c:	4581                	li	a1,0
    80400d1e:	e42e                	sd	a1,8(sp)
    80400d20:	e82a                	sd	a0,16(sp)
    80400d22:	fd84b603          	ld	a2,-40(s1)
    80400d26:	fe04b503          	ld	a0,-32(s1)
    80400d2a:	ca19                	beqz	a2,80400d40 <.LBB167_35+0x64>
    80400d2c:	4581                	li	a1,0
    80400d2e:	01660c63          	beq	a2,s6,80400d46 <.LBB167_35+0x6a>
    80400d32:	0512                	slli	a0,a0,0x4
    80400d34:	9562                	add	a0,a0,s8
    80400d36:	650c                	ld	a1,8(a0)
    80400d38:	01759663          	bne	a1,s7,80400d44 <.LBB167_35+0x68>
    80400d3c:	6108                	ld	a0,0(a0)
    80400d3e:	6108                	ld	a0,0(a0)
    80400d40:	4585                	li	a1,1
    80400d42:	a011                	j	80400d46 <.LBB167_35+0x6a>
    80400d44:	4581                	li	a1,0
    80400d46:	ec2e                	sd	a1,24(sp)
    80400d48:	f02a                	sd	a0,32(sp)
    80400d4a:	fd04b503          	ld	a0,-48(s1)
    80400d4e:	0512                	slli	a0,a0,0x4
    80400d50:	9562                	add	a0,a0,s8
    80400d52:	6510                	ld	a2,8(a0)
    80400d54:	6108                	ld	a0,0(a0)
    80400d56:	85d2                	mv	a1,s4
    80400d58:	9602                	jalr	a2
    80400d5a:	ed41                	bnez	a0,80400df2 <.LBB167_35+0x116>
    80400d5c:	147d                	addi	s0,s0,-1
    80400d5e:	cc2d                	beqz	s0,80400dd8 <.LBB167_35+0xfc>
    80400d60:	76c2                	ld	a3,48(sp)
    80400d62:	7522                	ld	a0,40(sp)
    80400d64:	ff8cb583          	ld	a1,-8(s9)
    80400d68:	000cb603          	ld	a2,0(s9)
    80400d6c:	6e94                	ld	a3,24(a3)
    80400d6e:	03848493          	addi	s1,s1,56
    80400d72:	0cc1                	addi	s9,s9,16
    80400d74:	9682                	jalr	a3
    80400d76:	d925                	beqz	a0,80400ce6 <.LBB167_35+0xa>
    80400d78:	a8ad                	j	80400df2 <.LBB167_35+0x116>
    80400d7a:	7004                	ld	s1,32(s0)
    80400d7c:	7410                	ld	a2,40(s0)
    80400d7e:	00843983          	ld	s3,8(s0)
    80400d82:	00043903          	ld	s2,0(s0)
    80400d86:	8ace                	mv	s5,s3
    80400d88:	00c9e363          	bltu	s3,a2,80400d8e <.LBB167_35+0xb2>
    80400d8c:	8ab2                	mv	s5,a2
    80400d8e:	040a8463          	beqz	s5,80400dd6 <.LBB167_35+0xfa>
    80400d92:	00093683          	ld	a3,0(s2)
    80400d96:	00893603          	ld	a2,8(s2)
    80400d9a:	6d98                	ld	a4,24(a1)
    80400d9c:	85b6                	mv	a1,a3
    80400d9e:	9702                	jalr	a4
    80400da0:	e929                	bnez	a0,80400df2 <.LBB167_35+0x116>
    80400da2:	04a1                	addi	s1,s1,8
    80400da4:	01890b13          	addi	s6,s2,24
    80400da8:	00810a13          	addi	s4,sp,8
    80400dac:	8456                	mv	s0,s5
    80400dae:	6090                	ld	a2,0(s1)
    80400db0:	ff84b503          	ld	a0,-8(s1)
    80400db4:	85d2                	mv	a1,s4
    80400db6:	9602                	jalr	a2
    80400db8:	ed0d                	bnez	a0,80400df2 <.LBB167_35+0x116>
    80400dba:	147d                	addi	s0,s0,-1
    80400dbc:	cc11                	beqz	s0,80400dd8 <.LBB167_35+0xfc>
    80400dbe:	76c2                	ld	a3,48(sp)
    80400dc0:	7522                	ld	a0,40(sp)
    80400dc2:	ff8b3583          	ld	a1,-8(s6)
    80400dc6:	000b3603          	ld	a2,0(s6)
    80400dca:	6e94                	ld	a3,24(a3)
    80400dcc:	04c1                	addi	s1,s1,16
    80400dce:	0b41                	addi	s6,s6,16
    80400dd0:	9682                	jalr	a3
    80400dd2:	dd71                	beqz	a0,80400dae <.LBB167_35+0xd2>
    80400dd4:	a839                	j	80400df2 <.LBB167_35+0x116>
    80400dd6:	4a81                	li	s5,0
    80400dd8:	013aff63          	bgeu	s5,s3,80400df6 <.LBB167_35+0x11a>
    80400ddc:	7522                	ld	a0,40(sp)
    80400dde:	76c2                	ld	a3,48(sp)
    80400de0:	004a9593          	slli	a1,s5,0x4
    80400de4:	00b90633          	add	a2,s2,a1
    80400de8:	620c                	ld	a1,0(a2)
    80400dea:	6610                	ld	a2,8(a2)
    80400dec:	6e94                	ld	a3,24(a3)
    80400dee:	9682                	jalr	a3
    80400df0:	c119                	beqz	a0,80400df6 <.LBB167_35+0x11a>
    80400df2:	4505                	li	a0,1
    80400df4:	a011                	j	80400df8 <.LBB167_35+0x11c>
    80400df6:	4501                	li	a0,0
    80400df8:	6ca6                	ld	s9,72(sp)
    80400dfa:	6c46                	ld	s8,80(sp)
    80400dfc:	6be6                	ld	s7,88(sp)
    80400dfe:	7b06                	ld	s6,96(sp)
    80400e00:	7aa6                	ld	s5,104(sp)
    80400e02:	7a46                	ld	s4,112(sp)
    80400e04:	79e6                	ld	s3,120(sp)
    80400e06:	690a                	ld	s2,128(sp)
    80400e08:	64aa                	ld	s1,136(sp)
    80400e0a:	644a                	ld	s0,144(sp)
    80400e0c:	60ea                	ld	ra,152(sp)
    80400e0e:	610d                	addi	sp,sp,160
    80400e10:	8082                	ret

0000000080400e12 <_ZN4core3fmt9Formatter12pad_integral17h005290bf5c80af87E>:
    80400e12:	7159                	addi	sp,sp,-112
    80400e14:	f486                	sd	ra,104(sp)
    80400e16:	f0a2                	sd	s0,96(sp)
    80400e18:	eca6                	sd	s1,88(sp)
    80400e1a:	e8ca                	sd	s2,80(sp)
    80400e1c:	e4ce                	sd	s3,72(sp)
    80400e1e:	e0d2                	sd	s4,64(sp)
    80400e20:	fc56                	sd	s5,56(sp)
    80400e22:	f85a                	sd	s6,48(sp)
    80400e24:	f45e                	sd	s7,40(sp)
    80400e26:	f062                	sd	s8,32(sp)
    80400e28:	ec66                	sd	s9,24(sp)
    80400e2a:	e86a                	sd	s10,16(sp)
    80400e2c:	e46e                	sd	s11,8(sp)
    80400e2e:	89be                	mv	s3,a5
    80400e30:	893a                	mv	s2,a4
    80400e32:	8ab6                	mv	s5,a3
    80400e34:	842a                	mv	s0,a0
    80400e36:	c9b1                	beqz	a1,80400e8a <_ZN4core3fmt9Formatter12pad_integral17h005290bf5c80af87E+0x78>
    80400e38:	03046503          	lwu	a0,48(s0)
    80400e3c:	00157593          	andi	a1,a0,1
    80400e40:	00110a37          	lui	s4,0x110
    80400e44:	c199                	beqz	a1,80400e4a <_ZN4core3fmt9Formatter12pad_integral17h005290bf5c80af87E+0x38>
    80400e46:	02b00a13          	li	s4,43
    80400e4a:	01358cb3          	add	s9,a1,s3
    80400e4e:	00457593          	andi	a1,a0,4
    80400e52:	c5a9                	beqz	a1,80400e9c <_ZN4core3fmt9Formatter12pad_integral17h005290bf5c80af87E+0x8a>
    80400e54:	4581                	li	a1,0
    80400e56:	020a8063          	beqz	s5,80400e76 <_ZN4core3fmt9Formatter12pad_integral17h005290bf5c80af87E+0x64>
    80400e5a:	86d6                	mv	a3,s5
    80400e5c:	8732                	mv	a4,a2
    80400e5e:	00074783          	lbu	a5,0(a4)
    80400e62:	0705                	addi	a4,a4,1
    80400e64:	0c07f793          	andi	a5,a5,192
    80400e68:	f8078793          	addi	a5,a5,-128
    80400e6c:	0017b793          	seqz	a5,a5
    80400e70:	16fd                	addi	a3,a3,-1
    80400e72:	95be                	add	a1,a1,a5
    80400e74:	f6ed                	bnez	a3,80400e5e <_ZN4core3fmt9Formatter12pad_integral17h005290bf5c80af87E+0x4c>
    80400e76:	015c86b3          	add	a3,s9,s5
    80400e7a:	40b68cb3          	sub	s9,a3,a1
    80400e7e:	8b32                	mv	s6,a2
    80400e80:	600c                	ld	a1,0(s0)
    80400e82:	4d85                	li	s11,1
    80400e84:	03b58163          	beq	a1,s11,80400ea6 <_ZN4core3fmt9Formatter12pad_integral17h005290bf5c80af87E+0x94>
    80400e88:	a0b1                	j	80400ed4 <_ZN4core3fmt9Formatter12pad_integral17h005290bf5c80af87E+0xc2>
    80400e8a:	03046503          	lwu	a0,48(s0)
    80400e8e:	00198c93          	addi	s9,s3,1
    80400e92:	02d00a13          	li	s4,45
    80400e96:	00457593          	andi	a1,a0,4
    80400e9a:	fdcd                	bnez	a1,80400e54 <_ZN4core3fmt9Formatter12pad_integral17h005290bf5c80af87E+0x42>
    80400e9c:	4b01                	li	s6,0
    80400e9e:	600c                	ld	a1,0(s0)
    80400ea0:	4d85                	li	s11,1
    80400ea2:	03b59963          	bne	a1,s11,80400ed4 <_ZN4core3fmt9Formatter12pad_integral17h005290bf5c80af87E+0xc2>
    80400ea6:	00843d03          	ld	s10,8(s0)
    80400eaa:	03acf563          	bgeu	s9,s10,80400ed4 <_ZN4core3fmt9Formatter12pad_integral17h005290bf5c80af87E+0xc2>
    80400eae:	8921                	andi	a0,a0,8
    80400eb0:	ed3d                	bnez	a0,80400f2e <_ZN4core3fmt9Formatter12pad_integral17h005290bf5c80af87E+0x11c>
    80400eb2:	03844503          	lbu	a0,56(s0)
    80400eb6:	4585                	li	a1,1
    80400eb8:	468d                	li	a3,3
    80400eba:	4605                	li	a2,1
    80400ebc:	00d50363          	beq	a0,a3,80400ec2 <_ZN4core3fmt9Formatter12pad_integral17h005290bf5c80af87E+0xb0>
    80400ec0:	862a                	mv	a2,a0
    80400ec2:	8a0d                	andi	a2,a2,3
    80400ec4:	419d0533          	sub	a0,s10,s9
    80400ec8:	0ac5c763          	blt	a1,a2,80400f76 <_ZN4core3fmt9Formatter12pad_integral17h005290bf5c80af87E+0x164>
    80400ecc:	ea45                	bnez	a2,80400f7c <_ZN4core3fmt9Formatter12pad_integral17h005290bf5c80af87E+0x16a>
    80400ece:	8c2a                	mv	s8,a0
    80400ed0:	4501                	li	a0,0
    80400ed2:	a0c9                	j	80400f94 <_ZN4core3fmt9Formatter12pad_integral17h005290bf5c80af87E+0x182>
    80400ed4:	8522                	mv	a0,s0
    80400ed6:	85d2                	mv	a1,s4
    80400ed8:	865a                	mv	a2,s6
    80400eda:	86d6                	mv	a3,s5
    80400edc:	00000097          	auipc	ra,0x0
    80400ee0:	174080e7          	jalr	372(ra) # 80401050 <_ZN4core3fmt9Formatter12pad_integral12write_prefix17h348f9b16d5d85b52E>
    80400ee4:	c10d                	beqz	a0,80400f06 <_ZN4core3fmt9Formatter12pad_integral17h005290bf5c80af87E+0xf4>
    80400ee6:	856e                	mv	a0,s11
    80400ee8:	6da2                	ld	s11,8(sp)
    80400eea:	6d42                	ld	s10,16(sp)
    80400eec:	6ce2                	ld	s9,24(sp)
    80400eee:	7c02                	ld	s8,32(sp)
    80400ef0:	7ba2                	ld	s7,40(sp)
    80400ef2:	7b42                	ld	s6,48(sp)
    80400ef4:	7ae2                	ld	s5,56(sp)
    80400ef6:	6a06                	ld	s4,64(sp)
    80400ef8:	69a6                	ld	s3,72(sp)
    80400efa:	6946                	ld	s2,80(sp)
    80400efc:	64e6                	ld	s1,88(sp)
    80400efe:	7406                	ld	s0,96(sp)
    80400f00:	70a6                	ld	ra,104(sp)
    80400f02:	6165                	addi	sp,sp,112
    80400f04:	8082                	ret
    80400f06:	740c                	ld	a1,40(s0)
    80400f08:	7008                	ld	a0,32(s0)
    80400f0a:	6d9c                	ld	a5,24(a1)
    80400f0c:	85ca                	mv	a1,s2
    80400f0e:	864e                	mv	a2,s3
    80400f10:	6da2                	ld	s11,8(sp)
    80400f12:	6d42                	ld	s10,16(sp)
    80400f14:	6ce2                	ld	s9,24(sp)
    80400f16:	7c02                	ld	s8,32(sp)
    80400f18:	7ba2                	ld	s7,40(sp)
    80400f1a:	7b42                	ld	s6,48(sp)
    80400f1c:	7ae2                	ld	s5,56(sp)
    80400f1e:	6a06                	ld	s4,64(sp)
    80400f20:	69a6                	ld	s3,72(sp)
    80400f22:	6946                	ld	s2,80(sp)
    80400f24:	64e6                	ld	s1,88(sp)
    80400f26:	7406                	ld	s0,96(sp)
    80400f28:	70a6                	ld	ra,104(sp)
    80400f2a:	6165                	addi	sp,sp,112
    80400f2c:	8782                	jr	a5
    80400f2e:	03446b83          	lwu	s7,52(s0)
    80400f32:	03000513          	li	a0,48
    80400f36:	03844c03          	lbu	s8,56(s0)
    80400f3a:	d848                	sw	a0,52(s0)
    80400f3c:	4d85                	li	s11,1
    80400f3e:	03b40c23          	sb	s11,56(s0)
    80400f42:	8522                	mv	a0,s0
    80400f44:	85d2                	mv	a1,s4
    80400f46:	865a                	mv	a2,s6
    80400f48:	86d6                	mv	a3,s5
    80400f4a:	00000097          	auipc	ra,0x0
    80400f4e:	106080e7          	jalr	262(ra) # 80401050 <_ZN4core3fmt9Formatter12pad_integral12write_prefix17h348f9b16d5d85b52E>
    80400f52:	f951                	bnez	a0,80400ee6 <_ZN4core3fmt9Formatter12pad_integral17h005290bf5c80af87E+0xd4>
    80400f54:	03844503          	lbu	a0,56(s0)
    80400f58:	4585                	li	a1,1
    80400f5a:	468d                	li	a3,3
    80400f5c:	4605                	li	a2,1
    80400f5e:	00d50363          	beq	a0,a3,80400f64 <_ZN4core3fmt9Formatter12pad_integral17h005290bf5c80af87E+0x152>
    80400f62:	862a                	mv	a2,a0
    80400f64:	8a0d                	andi	a2,a2,3
    80400f66:	419d0533          	sub	a0,s10,s9
    80400f6a:	00c5cb63          	blt	a1,a2,80400f80 <_ZN4core3fmt9Formatter12pad_integral17h005290bf5c80af87E+0x16e>
    80400f6e:	ee01                	bnez	a2,80400f86 <_ZN4core3fmt9Formatter12pad_integral17h005290bf5c80af87E+0x174>
    80400f70:	8aaa                	mv	s5,a0
    80400f72:	4501                	li	a0,0
    80400f74:	a041                	j	80400ff4 <_ZN4core3fmt9Formatter12pad_integral17h005290bf5c80af87E+0x1e2>
    80400f76:	458d                	li	a1,3
    80400f78:	00b61963          	bne	a2,a1,80400f8a <_ZN4core3fmt9Formatter12pad_integral17h005290bf5c80af87E+0x178>
    80400f7c:	4c01                	li	s8,0
    80400f7e:	a819                	j	80400f94 <_ZN4core3fmt9Formatter12pad_integral17h005290bf5c80af87E+0x182>
    80400f80:	458d                	li	a1,3
    80400f82:	06b61463          	bne	a2,a1,80400fea <_ZN4core3fmt9Formatter12pad_integral17h005290bf5c80af87E+0x1d8>
    80400f86:	4a81                	li	s5,0
    80400f88:	a0b5                	j	80400ff4 <_ZN4core3fmt9Formatter12pad_integral17h005290bf5c80af87E+0x1e2>
    80400f8a:	00150593          	addi	a1,a0,1
    80400f8e:	8105                	srli	a0,a0,0x1
    80400f90:	0015dc13          	srli	s8,a1,0x1
    80400f94:	00150493          	addi	s1,a0,1
    80400f98:	14fd                	addi	s1,s1,-1
    80400f9a:	c881                	beqz	s1,80400faa <_ZN4core3fmt9Formatter12pad_integral17h005290bf5c80af87E+0x198>
    80400f9c:	740c                	ld	a1,40(s0)
    80400f9e:	7008                	ld	a0,32(s0)
    80400fa0:	7190                	ld	a2,32(a1)
    80400fa2:	584c                	lw	a1,52(s0)
    80400fa4:	9602                	jalr	a2
    80400fa6:	d96d                	beqz	a0,80400f98 <_ZN4core3fmt9Formatter12pad_integral17h005290bf5c80af87E+0x186>
    80400fa8:	a085                	j	80401008 <_ZN4core3fmt9Formatter12pad_integral17h005290bf5c80af87E+0x1f6>
    80400faa:	03446b83          	lwu	s7,52(s0)
    80400fae:	8522                	mv	a0,s0
    80400fb0:	85d2                	mv	a1,s4
    80400fb2:	865a                	mv	a2,s6
    80400fb4:	86d6                	mv	a3,s5
    80400fb6:	00000097          	auipc	ra,0x0
    80400fba:	09a080e7          	jalr	154(ra) # 80401050 <_ZN4core3fmt9Formatter12pad_integral12write_prefix17h348f9b16d5d85b52E>
    80400fbe:	4d85                	li	s11,1
    80400fc0:	f11d                	bnez	a0,80400ee6 <_ZN4core3fmt9Formatter12pad_integral17h005290bf5c80af87E+0xd4>
    80400fc2:	740c                	ld	a1,40(s0)
    80400fc4:	7008                	ld	a0,32(s0)
    80400fc6:	6d94                	ld	a3,24(a1)
    80400fc8:	85ca                	mv	a1,s2
    80400fca:	864e                	mv	a2,s3
    80400fcc:	9682                	jalr	a3
    80400fce:	fd01                	bnez	a0,80400ee6 <_ZN4core3fmt9Formatter12pad_integral17h005290bf5c80af87E+0xd4>
    80400fd0:	02043903          	ld	s2,32(s0)
    80400fd4:	7400                	ld	s0,40(s0)
    80400fd6:	001c0493          	addi	s1,s8,1
    80400fda:	14fd                	addi	s1,s1,-1
    80400fdc:	c0b5                	beqz	s1,80401040 <_ZN4core3fmt9Formatter12pad_integral17h005290bf5c80af87E+0x22e>
    80400fde:	7010                	ld	a2,32(s0)
    80400fe0:	854a                	mv	a0,s2
    80400fe2:	85de                	mv	a1,s7
    80400fe4:	9602                	jalr	a2
    80400fe6:	d975                	beqz	a0,80400fda <_ZN4core3fmt9Formatter12pad_integral17h005290bf5c80af87E+0x1c8>
    80400fe8:	bdfd                	j	80400ee6 <_ZN4core3fmt9Formatter12pad_integral17h005290bf5c80af87E+0xd4>
    80400fea:	00150593          	addi	a1,a0,1
    80400fee:	8105                	srli	a0,a0,0x1
    80400ff0:	0015da93          	srli	s5,a1,0x1
    80400ff4:	00150493          	addi	s1,a0,1
    80400ff8:	14fd                	addi	s1,s1,-1
    80400ffa:	c889                	beqz	s1,8040100c <_ZN4core3fmt9Formatter12pad_integral17h005290bf5c80af87E+0x1fa>
    80400ffc:	740c                	ld	a1,40(s0)
    80400ffe:	7008                	ld	a0,32(s0)
    80401000:	7190                	ld	a2,32(a1)
    80401002:	584c                	lw	a1,52(s0)
    80401004:	9602                	jalr	a2
    80401006:	d96d                	beqz	a0,80400ff8 <_ZN4core3fmt9Formatter12pad_integral17h005290bf5c80af87E+0x1e6>
    80401008:	4d85                	li	s11,1
    8040100a:	bdf1                	j	80400ee6 <_ZN4core3fmt9Formatter12pad_integral17h005290bf5c80af87E+0xd4>
    8040100c:	740c                	ld	a1,40(s0)
    8040100e:	03446a03          	lwu	s4,52(s0)
    80401012:	7008                	ld	a0,32(s0)
    80401014:	6d94                	ld	a3,24(a1)
    80401016:	85ca                	mv	a1,s2
    80401018:	864e                	mv	a2,s3
    8040101a:	9682                	jalr	a3
    8040101c:	4d85                	li	s11,1
    8040101e:	ec0514e3          	bnez	a0,80400ee6 <_ZN4core3fmt9Formatter12pad_integral17h005290bf5c80af87E+0xd4>
    80401022:	02043903          	ld	s2,32(s0)
    80401026:	02843983          	ld	s3,40(s0)
    8040102a:	001a8493          	addi	s1,s5,1
    8040102e:	14fd                	addi	s1,s1,-1
    80401030:	c891                	beqz	s1,80401044 <_ZN4core3fmt9Formatter12pad_integral17h005290bf5c80af87E+0x232>
    80401032:	0209b603          	ld	a2,32(s3)
    80401036:	854a                	mv	a0,s2
    80401038:	85d2                	mv	a1,s4
    8040103a:	9602                	jalr	a2
    8040103c:	d96d                	beqz	a0,8040102e <_ZN4core3fmt9Formatter12pad_integral17h005290bf5c80af87E+0x21c>
    8040103e:	b565                	j	80400ee6 <_ZN4core3fmt9Formatter12pad_integral17h005290bf5c80af87E+0xd4>
    80401040:	4d81                	li	s11,0
    80401042:	b555                	j	80400ee6 <_ZN4core3fmt9Formatter12pad_integral17h005290bf5c80af87E+0xd4>
    80401044:	4d81                	li	s11,0
    80401046:	03742a23          	sw	s7,52(s0)
    8040104a:	03840c23          	sb	s8,56(s0)
    8040104e:	bd61                	j	80400ee6 <_ZN4core3fmt9Formatter12pad_integral17h005290bf5c80af87E+0xd4>

0000000080401050 <_ZN4core3fmt9Formatter12pad_integral12write_prefix17h348f9b16d5d85b52E>:
    80401050:	1101                	addi	sp,sp,-32
    80401052:	ec06                	sd	ra,24(sp)
    80401054:	e822                	sd	s0,16(sp)
    80401056:	e426                	sd	s1,8(sp)
    80401058:	e04a                	sd	s2,0(sp)
    8040105a:	02059713          	slli	a4,a1,0x20
    8040105e:	9301                	srli	a4,a4,0x20
    80401060:	001107b7          	lui	a5,0x110
    80401064:	8936                	mv	s2,a3
    80401066:	84b2                	mv	s1,a2
    80401068:	842a                	mv	s0,a0
    8040106a:	00f70963          	beq	a4,a5,8040107c <_ZN4core3fmt9Formatter12pad_integral12write_prefix17h348f9b16d5d85b52E+0x2c>
    8040106e:	7410                	ld	a2,40(s0)
    80401070:	7008                	ld	a0,32(s0)
    80401072:	7210                	ld	a2,32(a2)
    80401074:	9602                	jalr	a2
    80401076:	85aa                	mv	a1,a0
    80401078:	4505                	li	a0,1
    8040107a:	ed91                	bnez	a1,80401096 <_ZN4core3fmt9Formatter12pad_integral12write_prefix17h348f9b16d5d85b52E+0x46>
    8040107c:	cc81                	beqz	s1,80401094 <_ZN4core3fmt9Formatter12pad_integral12write_prefix17h348f9b16d5d85b52E+0x44>
    8040107e:	740c                	ld	a1,40(s0)
    80401080:	7008                	ld	a0,32(s0)
    80401082:	6d9c                	ld	a5,24(a1)
    80401084:	85a6                	mv	a1,s1
    80401086:	864a                	mv	a2,s2
    80401088:	6902                	ld	s2,0(sp)
    8040108a:	64a2                	ld	s1,8(sp)
    8040108c:	6442                	ld	s0,16(sp)
    8040108e:	60e2                	ld	ra,24(sp)
    80401090:	6105                	addi	sp,sp,32
    80401092:	8782                	jr	a5
    80401094:	4501                	li	a0,0
    80401096:	6902                	ld	s2,0(sp)
    80401098:	64a2                	ld	s1,8(sp)
    8040109a:	6442                	ld	s0,16(sp)
    8040109c:	60e2                	ld	ra,24(sp)
    8040109e:	6105                	addi	sp,sp,32
    804010a0:	8082                	ret

00000000804010a2 <_ZN4core3fmt9Formatter3pad17hcc8646e0ded6ea87E>:
    804010a2:	7139                	addi	sp,sp,-64
    804010a4:	fc06                	sd	ra,56(sp)
    804010a6:	f822                	sd	s0,48(sp)
    804010a8:	f426                	sd	s1,40(sp)
    804010aa:	f04a                	sd	s2,32(sp)
    804010ac:	ec4e                	sd	s3,24(sp)
    804010ae:	e852                	sd	s4,16(sp)
    804010b0:	e456                	sd	s5,8(sp)
    804010b2:	e05a                	sd	s6,0(sp)
    804010b4:	8b2a                	mv	s6,a0
    804010b6:	6914                	ld	a3,16(a0)
    804010b8:	6108                	ld	a0,0(a0)
    804010ba:	89b2                	mv	s3,a2
    804010bc:	892e                	mv	s2,a1
    804010be:	fff68593          	addi	a1,a3,-1
    804010c2:	4605                	li	a2,1
    804010c4:	0015b593          	seqz	a1,a1
    804010c8:	00c51463          	bne	a0,a2,804010d0 <_ZN4core3fmt9Formatter3pad17hcc8646e0ded6ea87E+0x2e>
    804010cc:	e581                	bnez	a1,804010d4 <_ZN4core3fmt9Formatter3pad17hcc8646e0ded6ea87E+0x32>
    804010ce:	a215                	j	804011f2 <_ZN4core3fmt9Formatter3pad17hcc8646e0ded6ea87E+0x150>
    804010d0:	18058f63          	beqz	a1,8040126e <_ZN4core3fmt9Formatter3pad17hcc8646e0ded6ea87E+0x1cc>
    804010d4:	018b3683          	ld	a3,24(s6)
    804010d8:	157d                	addi	a0,a0,-1
    804010da:	00153813          	seqz	a6,a0
    804010de:	01390733          	add	a4,s2,s3
    804010e2:	4581                	li	a1,0
    804010e4:	c2dd                	beqz	a3,8040118a <_ZN4core3fmt9Formatter3pad17hcc8646e0ded6ea87E+0xe8>
    804010e6:	5e7d                	li	t3,-1
    804010e8:	0e000393          	li	t2,224
    804010ec:	0f000313          	li	t1,240
    804010f0:	001c08b7          	lui	a7,0x1c0
    804010f4:	001102b7          	lui	t0,0x110
    804010f8:	854a                	mv	a0,s2
    804010fa:	a815                	j	8040112e <_ZN4core3fmt9Formatter3pad17hcc8646e0ded6ea87E+0x8c>
    804010fc:	00064403          	lbu	s0,0(a2)
    80401100:	00160493          	addi	s1,a2,1
    80401104:	03f47f93          	andi	t6,s0,63
    80401108:	07ca                	slli	a5,a5,0x12
    8040110a:	0117f7b3          	and	a5,a5,a7
    8040110e:	00cf1413          	slli	s0,t5,0xc
    80401112:	006e9613          	slli	a2,t4,0x6
    80401116:	8fc1                	or	a5,a5,s0
    80401118:	8e5d                	or	a2,a2,a5
    8040111a:	01f66633          	or	a2,a2,t6
    8040111e:	0c560863          	beq	a2,t0,804011ee <_ZN4core3fmt9Formatter3pad17hcc8646e0ded6ea87E+0x14c>
    80401122:	40a48533          	sub	a0,s1,a0
    80401126:	16fd                	addi	a3,a3,-1
    80401128:	95aa                	add	a1,a1,a0
    8040112a:	8526                	mv	a0,s1
    8040112c:	c2a5                	beqz	a3,8040118c <_ZN4core3fmt9Formatter3pad17hcc8646e0ded6ea87E+0xea>
    8040112e:	0ca70063          	beq	a4,a0,804011ee <_ZN4core3fmt9Formatter3pad17hcc8646e0ded6ea87E+0x14c>
    80401132:	00050603          	lb	a2,0(a0)
    80401136:	00150493          	addi	s1,a0,1
    8040113a:	fece44e3          	blt	t3,a2,80401122 <_ZN4core3fmt9Formatter3pad17hcc8646e0ded6ea87E+0x80>
    8040113e:	0ff67793          	andi	a5,a2,255
    80401142:	00e48c63          	beq	s1,a4,8040115a <_ZN4core3fmt9Formatter3pad17hcc8646e0ded6ea87E+0xb8>
    80401146:	00154603          	lbu	a2,1(a0)
    8040114a:	00250493          	addi	s1,a0,2
    8040114e:	03f67f13          	andi	t5,a2,63
    80401152:	8626                	mv	a2,s1
    80401154:	fc77e7e3          	bltu	a5,t2,80401122 <_ZN4core3fmt9Formatter3pad17hcc8646e0ded6ea87E+0x80>
    80401158:	a029                	j	80401162 <_ZN4core3fmt9Formatter3pad17hcc8646e0ded6ea87E+0xc0>
    8040115a:	4f01                	li	t5,0
    8040115c:	863a                	mv	a2,a4
    8040115e:	fc77e2e3          	bltu	a5,t2,80401122 <_ZN4core3fmt9Formatter3pad17hcc8646e0ded6ea87E+0x80>
    80401162:	00e60c63          	beq	a2,a4,8040117a <_ZN4core3fmt9Formatter3pad17hcc8646e0ded6ea87E+0xd8>
    80401166:	00064403          	lbu	s0,0(a2)
    8040116a:	00160493          	addi	s1,a2,1
    8040116e:	03f47e93          	andi	t4,s0,63
    80401172:	8626                	mv	a2,s1
    80401174:	fa67e7e3          	bltu	a5,t1,80401122 <_ZN4core3fmt9Formatter3pad17hcc8646e0ded6ea87E+0x80>
    80401178:	a029                	j	80401182 <_ZN4core3fmt9Formatter3pad17hcc8646e0ded6ea87E+0xe0>
    8040117a:	4e81                	li	t4,0
    8040117c:	863a                	mv	a2,a4
    8040117e:	fa67e2e3          	bltu	a5,t1,80401122 <_ZN4core3fmt9Formatter3pad17hcc8646e0ded6ea87E+0x80>
    80401182:	f6e61de3          	bne	a2,a4,804010fc <_ZN4core3fmt9Formatter3pad17hcc8646e0ded6ea87E+0x5a>
    80401186:	4f81                	li	t6,0
    80401188:	b741                	j	80401108 <_ZN4core3fmt9Formatter3pad17hcc8646e0ded6ea87E+0x66>
    8040118a:	84ca                	mv	s1,s2
    8040118c:	06970163          	beq	a4,s1,804011ee <_ZN4core3fmt9Formatter3pad17hcc8646e0ded6ea87E+0x14c>
    80401190:	00048503          	lb	a0,0(s1)
    80401194:	567d                	li	a2,-1
    80401196:	02a65763          	bge	a2,a0,804011c4 <_ZN4core3fmt9Formatter3pad17hcc8646e0ded6ea87E+0x122>
    8040119a:	0015b513          	seqz	a0,a1
    8040119e:	0135c633          	xor	a2,a1,s3
    804011a2:	00163613          	seqz	a2,a2
    804011a6:	8d51                	or	a0,a0,a2
    804011a8:	e919                	bnez	a0,804011be <_ZN4core3fmt9Formatter3pad17hcc8646e0ded6ea87E+0x11c>
    804011aa:	0335fe63          	bgeu	a1,s3,804011e6 <_ZN4core3fmt9Formatter3pad17hcc8646e0ded6ea87E+0x144>
    804011ae:	00b90533          	add	a0,s2,a1
    804011b2:	00050503          	lb	a0,0(a0)
    804011b6:	fc000613          	li	a2,-64
    804011ba:	02c54663          	blt	a0,a2,804011e6 <_ZN4core3fmt9Formatter3pad17hcc8646e0ded6ea87E+0x144>
    804011be:	854a                	mv	a0,s2
    804011c0:	e50d                	bnez	a0,804011ea <_ZN4core3fmt9Formatter3pad17hcc8646e0ded6ea87E+0x148>
    804011c2:	a035                	j	804011ee <_ZN4core3fmt9Formatter3pad17hcc8646e0ded6ea87E+0x14c>
    804011c4:	00148613          	addi	a2,s1,1
    804011c8:	0ff57513          	andi	a0,a0,255
    804011cc:	14e60163          	beq	a2,a4,8040130e <_ZN4core3fmt9Formatter3pad17hcc8646e0ded6ea87E+0x26c>
    804011d0:	0014c683          	lbu	a3,1(s1)
    804011d4:	00248613          	addi	a2,s1,2
    804011d8:	03f6f693          	andi	a3,a3,63
    804011dc:	0e000793          	li	a5,224
    804011e0:	12f57d63          	bgeu	a0,a5,8040131a <_ZN4core3fmt9Formatter3pad17hcc8646e0ded6ea87E+0x278>
    804011e4:	bf5d                	j	8040119a <_ZN4core3fmt9Formatter3pad17hcc8646e0ded6ea87E+0xf8>
    804011e6:	4501                	li	a0,0
    804011e8:	c119                	beqz	a0,804011ee <_ZN4core3fmt9Formatter3pad17hcc8646e0ded6ea87E+0x14c>
    804011ea:	892a                	mv	s2,a0
    804011ec:	89ae                	mv	s3,a1
    804011ee:	08080063          	beqz	a6,8040126e <_ZN4core3fmt9Formatter3pad17hcc8646e0ded6ea87E+0x1cc>
    804011f2:	04098763          	beqz	s3,80401240 <_ZN4core3fmt9Formatter3pad17hcc8646e0ded6ea87E+0x19e>
    804011f6:	4581                	li	a1,0
    804011f8:	854e                	mv	a0,s3
    804011fa:	864a                	mv	a2,s2
    804011fc:	00064683          	lbu	a3,0(a2)
    80401200:	0605                	addi	a2,a2,1
    80401202:	0c06f693          	andi	a3,a3,192
    80401206:	f8068693          	addi	a3,a3,-128
    8040120a:	0016b693          	seqz	a3,a3
    8040120e:	157d                	addi	a0,a0,-1
    80401210:	95b6                	add	a1,a1,a3
    80401212:	f56d                	bnez	a0,804011fc <_ZN4core3fmt9Formatter3pad17hcc8646e0ded6ea87E+0x15a>
    80401214:	008b3503          	ld	a0,8(s6)
    80401218:	40b985b3          	sub	a1,s3,a1
    8040121c:	04a5f963          	bgeu	a1,a0,8040126e <_ZN4core3fmt9Formatter3pad17hcc8646e0ded6ea87E+0x1cc>
    80401220:	4581                	li	a1,0
    80401222:	864e                	mv	a2,s3
    80401224:	86ca                	mv	a3,s2
    80401226:	0006c703          	lbu	a4,0(a3)
    8040122a:	0685                	addi	a3,a3,1
    8040122c:	0c077713          	andi	a4,a4,192
    80401230:	f8070713          	addi	a4,a4,-128
    80401234:	00173713          	seqz	a4,a4
    80401238:	167d                	addi	a2,a2,-1
    8040123a:	95ba                	add	a1,a1,a4
    8040123c:	f66d                	bnez	a2,80401226 <_ZN4core3fmt9Formatter3pad17hcc8646e0ded6ea87E+0x184>
    8040123e:	a029                	j	80401248 <_ZN4core3fmt9Formatter3pad17hcc8646e0ded6ea87E+0x1a6>
    80401240:	008b3503          	ld	a0,8(s6)
    80401244:	4581                	li	a1,0
    80401246:	c505                	beqz	a0,8040126e <_ZN4core3fmt9Formatter3pad17hcc8646e0ded6ea87E+0x1cc>
    80401248:	038b4683          	lbu	a3,56(s6)
    8040124c:	4701                	li	a4,0
    8040124e:	478d                	li	a5,3
    80401250:	41358633          	sub	a2,a1,s3
    80401254:	00f68363          	beq	a3,a5,8040125a <_ZN4core3fmt9Formatter3pad17hcc8646e0ded6ea87E+0x1b8>
    80401258:	8736                	mv	a4,a3
    8040125a:	00377593          	andi	a1,a4,3
    8040125e:	4685                	li	a3,1
    80401260:	9532                	add	a0,a0,a2
    80401262:	02b6c763          	blt	a3,a1,80401290 <_ZN4core3fmt9Formatter3pad17hcc8646e0ded6ea87E+0x1ee>
    80401266:	e985                	bnez	a1,80401296 <_ZN4core3fmt9Formatter3pad17hcc8646e0ded6ea87E+0x1f4>
    80401268:	8aaa                	mv	s5,a0
    8040126a:	4501                	li	a0,0
    8040126c:	a825                	j	804012a4 <_ZN4core3fmt9Formatter3pad17hcc8646e0ded6ea87E+0x202>
    8040126e:	028b3583          	ld	a1,40(s6)
    80401272:	020b3503          	ld	a0,32(s6)
    80401276:	6d9c                	ld	a5,24(a1)
    80401278:	85ca                	mv	a1,s2
    8040127a:	864e                	mv	a2,s3
    8040127c:	6b02                	ld	s6,0(sp)
    8040127e:	6aa2                	ld	s5,8(sp)
    80401280:	6a42                	ld	s4,16(sp)
    80401282:	69e2                	ld	s3,24(sp)
    80401284:	7902                	ld	s2,32(sp)
    80401286:	74a2                	ld	s1,40(sp)
    80401288:	7442                	ld	s0,48(sp)
    8040128a:	70e2                	ld	ra,56(sp)
    8040128c:	6121                	addi	sp,sp,64
    8040128e:	8782                	jr	a5
    80401290:	460d                	li	a2,3
    80401292:	00c59463          	bne	a1,a2,8040129a <_ZN4core3fmt9Formatter3pad17hcc8646e0ded6ea87E+0x1f8>
    80401296:	4a81                	li	s5,0
    80401298:	a031                	j	804012a4 <_ZN4core3fmt9Formatter3pad17hcc8646e0ded6ea87E+0x202>
    8040129a:	00150593          	addi	a1,a0,1
    8040129e:	8105                	srli	a0,a0,0x1
    804012a0:	0015da93          	srli	s5,a1,0x1
    804012a4:	00150493          	addi	s1,a0,1
    804012a8:	14fd                	addi	s1,s1,-1
    804012aa:	cc81                	beqz	s1,804012c2 <_ZN4core3fmt9Formatter3pad17hcc8646e0ded6ea87E+0x220>
    804012ac:	028b3583          	ld	a1,40(s6)
    804012b0:	020b3503          	ld	a0,32(s6)
    804012b4:	7190                	ld	a2,32(a1)
    804012b6:	034b2583          	lw	a1,52(s6)
    804012ba:	9602                	jalr	a2
    804012bc:	d575                	beqz	a0,804012a8 <_ZN4core3fmt9Formatter3pad17hcc8646e0ded6ea87E+0x206>
    804012be:	4905                	li	s2,1
    804012c0:	a825                	j	804012f8 <_ZN4core3fmt9Formatter3pad17hcc8646e0ded6ea87E+0x256>
    804012c2:	028b3583          	ld	a1,40(s6)
    804012c6:	034b6a03          	lwu	s4,52(s6)
    804012ca:	020b3503          	ld	a0,32(s6)
    804012ce:	6d94                	ld	a3,24(a1)
    804012d0:	85ca                	mv	a1,s2
    804012d2:	864e                	mv	a2,s3
    804012d4:	9682                	jalr	a3
    804012d6:	4905                	li	s2,1
    804012d8:	e105                	bnez	a0,804012f8 <_ZN4core3fmt9Formatter3pad17hcc8646e0ded6ea87E+0x256>
    804012da:	020b3983          	ld	s3,32(s6)
    804012de:	028b3403          	ld	s0,40(s6)
    804012e2:	001a8493          	addi	s1,s5,1
    804012e6:	14fd                	addi	s1,s1,-1
    804012e8:	c499                	beqz	s1,804012f6 <_ZN4core3fmt9Formatter3pad17hcc8646e0ded6ea87E+0x254>
    804012ea:	7010                	ld	a2,32(s0)
    804012ec:	854e                	mv	a0,s3
    804012ee:	85d2                	mv	a1,s4
    804012f0:	9602                	jalr	a2
    804012f2:	d975                	beqz	a0,804012e6 <_ZN4core3fmt9Formatter3pad17hcc8646e0ded6ea87E+0x244>
    804012f4:	a011                	j	804012f8 <_ZN4core3fmt9Formatter3pad17hcc8646e0ded6ea87E+0x256>
    804012f6:	4901                	li	s2,0
    804012f8:	854a                	mv	a0,s2
    804012fa:	6b02                	ld	s6,0(sp)
    804012fc:	6aa2                	ld	s5,8(sp)
    804012fe:	6a42                	ld	s4,16(sp)
    80401300:	69e2                	ld	s3,24(sp)
    80401302:	7902                	ld	s2,32(sp)
    80401304:	74a2                	ld	s1,40(sp)
    80401306:	7442                	ld	s0,48(sp)
    80401308:	70e2                	ld	ra,56(sp)
    8040130a:	6121                	addi	sp,sp,64
    8040130c:	8082                	ret
    8040130e:	4681                	li	a3,0
    80401310:	863a                	mv	a2,a4
    80401312:	0e000793          	li	a5,224
    80401316:	e8f562e3          	bltu	a0,a5,8040119a <_ZN4core3fmt9Formatter3pad17hcc8646e0ded6ea87E+0xf8>
    8040131a:	00e60d63          	beq	a2,a4,80401334 <_ZN4core3fmt9Formatter3pad17hcc8646e0ded6ea87E+0x292>
    8040131e:	00064483          	lbu	s1,0(a2)
    80401322:	00160793          	addi	a5,a2,1
    80401326:	03f4f613          	andi	a2,s1,63
    8040132a:	0f000493          	li	s1,240
    8040132e:	00957963          	bgeu	a0,s1,80401340 <_ZN4core3fmt9Formatter3pad17hcc8646e0ded6ea87E+0x29e>
    80401332:	b5a5                	j	8040119a <_ZN4core3fmt9Formatter3pad17hcc8646e0ded6ea87E+0xf8>
    80401334:	4601                	li	a2,0
    80401336:	87ba                	mv	a5,a4
    80401338:	0f000493          	li	s1,240
    8040133c:	e4956fe3          	bltu	a0,s1,8040119a <_ZN4core3fmt9Formatter3pad17hcc8646e0ded6ea87E+0xf8>
    80401340:	00e78763          	beq	a5,a4,8040134e <_ZN4core3fmt9Formatter3pad17hcc8646e0ded6ea87E+0x2ac>
    80401344:	0007c703          	lbu	a4,0(a5) # 110000 <BASE_ADDRESS-0x802f0000>
    80401348:	03f77713          	andi	a4,a4,63
    8040134c:	a011                	j	80401350 <_ZN4core3fmt9Formatter3pad17hcc8646e0ded6ea87E+0x2ae>
    8040134e:	4701                	li	a4,0
    80401350:	054a                	slli	a0,a0,0x12
    80401352:	001c07b7          	lui	a5,0x1c0
    80401356:	8d7d                	and	a0,a0,a5
    80401358:	06b2                	slli	a3,a3,0xc
    8040135a:	061a                	slli	a2,a2,0x6
    8040135c:	8d55                	or	a0,a0,a3
    8040135e:	8d51                	or	a0,a0,a2
    80401360:	8d59                	or	a0,a0,a4
    80401362:	00110637          	lui	a2,0x110
    80401366:	e8c504e3          	beq	a0,a2,804011ee <_ZN4core3fmt9Formatter3pad17hcc8646e0ded6ea87E+0x14c>
    8040136a:	bd05                	j	8040119a <_ZN4core3fmt9Formatter3pad17hcc8646e0ded6ea87E+0xf8>

000000008040136c <_ZN4core3fmt9Formatter15debug_lower_hex17hffada68515a2cdf7E>:
    8040136c:	03054503          	lbu	a0,48(a0)
    80401370:	8941                	andi	a0,a0,16
    80401372:	8111                	srli	a0,a0,0x4
    80401374:	8082                	ret

0000000080401376 <_ZN4core3fmt9Formatter15debug_upper_hex17h3e8dade1475f5ac4E>:
    80401376:	03054503          	lbu	a0,48(a0)
    8040137a:	02057513          	andi	a0,a0,32
    8040137e:	8115                	srli	a0,a0,0x5
    80401380:	8082                	ret

0000000080401382 <_ZN42_$LT$str$u20$as$u20$core..fmt..Display$GT$3fmt17h669958e415ffd666E>:
    80401382:	86ae                	mv	a3,a1
    80401384:	85aa                	mv	a1,a0
    80401386:	8532                	mv	a0,a2
    80401388:	8636                	mv	a2,a3
    8040138a:	00000317          	auipc	t1,0x0
    8040138e:	d1830067          	jr	-744(t1) # 804010a2 <_ZN4core3fmt9Formatter3pad17hcc8646e0ded6ea87E>

0000000080401392 <_ZN41_$LT$char$u20$as$u20$core..fmt..Debug$GT$3fmt17hebe9382637ae1ba8E>:
    80401392:	7159                	addi	sp,sp,-112
    80401394:	f486                	sd	ra,104(sp)
    80401396:	f0a2                	sd	s0,96(sp)
    80401398:	eca6                	sd	s1,88(sp)
    8040139a:	e8ca                	sd	s2,80(sp)
    8040139c:	e4ce                	sd	s3,72(sp)
    8040139e:	e0d2                	sd	s4,64(sp)
    804013a0:	fc56                	sd	s5,56(sp)
    804013a2:	f85a                	sd	s6,48(sp)
    804013a4:	f45e                	sd	s7,40(sp)
    804013a6:	f062                	sd	s8,32(sp)
    804013a8:	ec66                	sd	s9,24(sp)
    804013aa:	e86a                	sd	s10,16(sp)
    804013ac:	e46e                	sd	s11,8(sp)
    804013ae:	842e                	mv	s0,a1
    804013b0:	758c                	ld	a1,40(a1)
    804013b2:	7010                	ld	a2,32(s0)
    804013b4:	7194                	ld	a3,32(a1)
    804013b6:	84aa                	mv	s1,a0
    804013b8:	02700593          	li	a1,39
    804013bc:	8532                	mv	a0,a2
    804013be:	9682                	jalr	a3
    804013c0:	c10d                	beqz	a0,804013e2 <_ZN41_$LT$char$u20$as$u20$core..fmt..Debug$GT$3fmt17hebe9382637ae1ba8E+0x50>
    804013c2:	4505                	li	a0,1
    804013c4:	6da2                	ld	s11,8(sp)
    804013c6:	6d42                	ld	s10,16(sp)
    804013c8:	6ce2                	ld	s9,24(sp)
    804013ca:	7c02                	ld	s8,32(sp)
    804013cc:	7ba2                	ld	s7,40(sp)
    804013ce:	7b42                	ld	s6,48(sp)
    804013d0:	7ae2                	ld	s5,56(sp)
    804013d2:	6a06                	ld	s4,64(sp)
    804013d4:	69a6                	ld	s3,72(sp)
    804013d6:	6946                	ld	s2,80(sp)
    804013d8:	64e6                	ld	s1,88(sp)
    804013da:	7406                	ld	s0,96(sp)
    804013dc:	70a6                	ld	ra,104(sp)
    804013de:	6165                	addi	sp,sp,112
    804013e0:	8082                	ret
    804013e2:	0004ea83          	lwu	s5,0(s1)
    804013e6:	02100513          	li	a0,33
    804013ea:	4489                	li	s1,2
    804013ec:	01554e63          	blt	a0,s5,80401408 <_ZN41_$LT$char$u20$as$u20$core..fmt..Debug$GT$3fmt17hebe9382637ae1ba8E+0x76>
    804013f0:	4525                	li	a0,9
    804013f2:	04aa8763          	beq	s5,a0,80401440 <_ZN41_$LT$char$u20$as$u20$core..fmt..Debug$GT$3fmt17hebe9382637ae1ba8E+0xae>
    804013f6:	4529                	li	a0,10
    804013f8:	04aa8763          	beq	s5,a0,80401446 <_ZN41_$LT$char$u20$as$u20$core..fmt..Debug$GT$3fmt17hebe9382637ae1ba8E+0xb4>
    804013fc:	4535                	li	a0,13
    804013fe:	02aa9163          	bne	s5,a0,80401420 <_ZN41_$LT$char$u20$as$u20$core..fmt..Debug$GT$3fmt17hebe9382637ae1ba8E+0x8e>
    80401402:	07200a93          	li	s5,114
    80401406:	a091                	j	8040144a <_ZN41_$LT$char$u20$as$u20$core..fmt..Debug$GT$3fmt17hebe9382637ae1ba8E+0xb8>
    80401408:	02200513          	li	a0,34
    8040140c:	02aa8f63          	beq	s5,a0,8040144a <_ZN41_$LT$char$u20$as$u20$core..fmt..Debug$GT$3fmt17hebe9382637ae1ba8E+0xb8>
    80401410:	02700513          	li	a0,39
    80401414:	02aa8b63          	beq	s5,a0,8040144a <_ZN41_$LT$char$u20$as$u20$core..fmt..Debug$GT$3fmt17hebe9382637ae1ba8E+0xb8>
    80401418:	05c00513          	li	a0,92
    8040141c:	02aa8763          	beq	s5,a0,8040144a <_ZN41_$LT$char$u20$as$u20$core..fmt..Debug$GT$3fmt17hebe9382637ae1ba8E+0xb8>
    80401420:	8556                	mv	a0,s5
    80401422:	00001097          	auipc	ra,0x1
    80401426:	5ee080e7          	jalr	1518(ra) # 80402a10 <_ZN4core7unicode12unicode_data15grapheme_extend6lookup17hc6378705226a5029E>
    8040142a:	10051b63          	bnez	a0,80401540 <_ZN41_$LT$char$u20$as$u20$core..fmt..Debug$GT$3fmt17hebe9382637ae1ba8E+0x1ae>
    8040142e:	8556                	mv	a0,s5
    80401430:	00001097          	auipc	ra,0x1
    80401434:	8e6080e7          	jalr	-1818(ra) # 80401d16 <_ZN4core7unicode9printable12is_printable17hd298c127375d0caaE>
    80401438:	10050463          	beqz	a0,80401540 <_ZN41_$LT$char$u20$as$u20$core..fmt..Debug$GT$3fmt17hebe9382637ae1ba8E+0x1ae>
    8040143c:	4485                	li	s1,1
    8040143e:	a031                	j	8040144a <_ZN41_$LT$char$u20$as$u20$core..fmt..Debug$GT$3fmt17hebe9382637ae1ba8E+0xb8>
    80401440:	07400a93          	li	s5,116
    80401444:	a019                	j	8040144a <_ZN41_$LT$char$u20$as$u20$core..fmt..Debug$GT$3fmt17hebe9382637ae1ba8E+0xb8>
    80401446:	06e00a93          	li	s5,110
    8040144a:	4a09                	li	s4,2
    8040144c:	4b05                	li	s6,1
    8040144e:	f0100513          	li	a0,-255
    80401452:	1502                	slli	a0,a0,0x20
    80401454:	fff50b93          	addi	s7,a0,-1
    80401458:	4c29                	li	s8,10
    8040145a:	020b1c93          	slli	s9,s6,0x20
    8040145e:	4d0d                	li	s10,3
    80401460:	021b1d93          	slli	s11,s6,0x21
    80401464:	4911                	li	s2,4
    80401466:	a039                	j	80401474 <_ZN41_$LT$char$u20$as$u20$core..fmt..Debug$GT$3fmt17hebe9382637ae1ba8E+0xe2>
    80401468:	4485                	li	s1,1
    8040146a:	7410                	ld	a2,40(s0)
    8040146c:	7008                	ld	a0,32(s0)
    8040146e:	7210                	ld	a2,32(a2)
    80401470:	9602                	jalr	a2
    80401472:	f921                	bnez	a0,804013c2 <_ZN41_$LT$char$u20$as$u20$core..fmt..Debug$GT$3fmt17hebe9382637ae1ba8E+0x30>
    80401474:	02049513          	slli	a0,s1,0x20
    80401478:	9101                	srli	a0,a0,0x20
    8040147a:	00ab4663          	blt	s6,a0,80401486 <_ZN41_$LT$char$u20$as$u20$core..fmt..Debug$GT$3fmt17hebe9382637ae1ba8E+0xf4>
    8040147e:	cd49                	beqz	a0,80401518 <_ZN41_$LT$char$u20$as$u20$core..fmt..Debug$GT$3fmt17hebe9382637ae1ba8E+0x186>
    80401480:	4481                	li	s1,0
    80401482:	85d6                	mv	a1,s5
    80401484:	b7dd                	j	8040146a <_ZN41_$LT$char$u20$as$u20$core..fmt..Debug$GT$3fmt17hebe9382637ae1ba8E+0xd8>
    80401486:	05c00593          	li	a1,92
    8040148a:	fd450fe3          	beq	a0,s4,80401468 <_ZN41_$LT$char$u20$as$u20$core..fmt..Debug$GT$3fmt17hebe9382637ae1ba8E+0xd6>
    8040148e:	0209d513          	srli	a0,s3,0x20
    80401492:	0ff57513          	andi	a0,a0,255
    80401496:	00aa4b63          	blt	s4,a0,804014ac <_ZN41_$LT$char$u20$as$u20$core..fmt..Debug$GT$3fmt17hebe9382637ae1ba8E+0x11a>
    8040149a:	cd3d                	beqz	a0,80401518 <_ZN41_$LT$char$u20$as$u20$core..fmt..Debug$GT$3fmt17hebe9382637ae1ba8E+0x186>
    8040149c:	03651663          	bne	a0,s6,804014c8 <_ZN41_$LT$char$u20$as$u20$core..fmt..Debug$GT$3fmt17hebe9382637ae1ba8E+0x136>
    804014a0:	0179f9b3          	and	s3,s3,s7
    804014a4:	448d                	li	s1,3
    804014a6:	07d00593          	li	a1,125
    804014aa:	b7c1                	j	8040146a <_ZN41_$LT$char$u20$as$u20$core..fmt..Debug$GT$3fmt17hebe9382637ae1ba8E+0xd8>
    804014ac:	05a50063          	beq	a0,s10,804014ec <_ZN41_$LT$char$u20$as$u20$core..fmt..Debug$GT$3fmt17hebe9382637ae1ba8E+0x15a>
    804014b0:	05251663          	bne	a0,s2,804014fc <_ZN41_$LT$char$u20$as$u20$core..fmt..Debug$GT$3fmt17hebe9382637ae1ba8E+0x16a>
    804014b4:	0179f533          	and	a0,s3,s7
    804014b8:	448d                	li	s1,3
    804014ba:	02049593          	slli	a1,s1,0x20
    804014be:	00b569b3          	or	s3,a0,a1
    804014c2:	07500593          	li	a1,117
    804014c6:	b755                	j	8040146a <_ZN41_$LT$char$u20$as$u20$core..fmt..Debug$GT$3fmt17hebe9382637ae1ba8E+0xd8>
    804014c8:	6602                	ld	a2,0(sp)
    804014ca:	00261513          	slli	a0,a2,0x2
    804014ce:	00a9d53b          	srlw	a0,s3,a0
    804014d2:	893d                	andi	a0,a0,15
    804014d4:	03000593          	li	a1,48
    804014d8:	01856463          	bltu	a0,s8,804014e0 <_ZN41_$LT$char$u20$as$u20$core..fmt..Debug$GT$3fmt17hebe9382637ae1ba8E+0x14e>
    804014dc:	05700593          	li	a1,87
    804014e0:	95aa                	add	a1,a1,a0
    804014e2:	c60d                	beqz	a2,8040150c <_ZN41_$LT$char$u20$as$u20$core..fmt..Debug$GT$3fmt17hebe9382637ae1ba8E+0x17a>
    804014e4:	167d                	addi	a2,a2,-1
    804014e6:	e032                	sd	a2,0(sp)
    804014e8:	448d                	li	s1,3
    804014ea:	b741                	j	8040146a <_ZN41_$LT$char$u20$as$u20$core..fmt..Debug$GT$3fmt17hebe9382637ae1ba8E+0xd8>
    804014ec:	0179f533          	and	a0,s3,s7
    804014f0:	01b569b3          	or	s3,a0,s11
    804014f4:	448d                	li	s1,3
    804014f6:	07b00593          	li	a1,123
    804014fa:	bf85                	j	8040146a <_ZN41_$LT$char$u20$as$u20$core..fmt..Debug$GT$3fmt17hebe9382637ae1ba8E+0xd8>
    804014fc:	0179f533          	and	a0,s3,s7
    80401500:	022b1613          	slli	a2,s6,0x22
    80401504:	00c569b3          	or	s3,a0,a2
    80401508:	448d                	li	s1,3
    8040150a:	b785                	j	8040146a <_ZN41_$LT$char$u20$as$u20$core..fmt..Debug$GT$3fmt17hebe9382637ae1ba8E+0xd8>
    8040150c:	0179f533          	and	a0,s3,s7
    80401510:	019569b3          	or	s3,a0,s9
    80401514:	448d                	li	s1,3
    80401516:	bf91                	j	8040146a <_ZN41_$LT$char$u20$as$u20$core..fmt..Debug$GT$3fmt17hebe9382637ae1ba8E+0xd8>
    80401518:	740c                	ld	a1,40(s0)
    8040151a:	7008                	ld	a0,32(s0)
    8040151c:	719c                	ld	a5,32(a1)
    8040151e:	02700593          	li	a1,39
    80401522:	6da2                	ld	s11,8(sp)
    80401524:	6d42                	ld	s10,16(sp)
    80401526:	6ce2                	ld	s9,24(sp)
    80401528:	7c02                	ld	s8,32(sp)
    8040152a:	7ba2                	ld	s7,40(sp)
    8040152c:	7b42                	ld	s6,48(sp)
    8040152e:	7ae2                	ld	s5,56(sp)
    80401530:	6a06                	ld	s4,64(sp)
    80401532:	69a6                	ld	s3,72(sp)
    80401534:	6946                	ld	s2,80(sp)
    80401536:	64e6                	ld	s1,88(sp)
    80401538:	7406                	ld	s0,96(sp)
    8040153a:	70a6                	ld	ra,104(sp)
    8040153c:	6165                	addi	sp,sp,112
    8040153e:	8782                	jr	a5
    80401540:	001ae513          	ori	a0,s5,1
    80401544:	00155593          	srli	a1,a0,0x1
    80401548:	8d4d                	or	a0,a0,a1
    8040154a:	00255593          	srli	a1,a0,0x2
    8040154e:	8d4d                	or	a0,a0,a1
    80401550:	00455593          	srli	a1,a0,0x4
    80401554:	8d4d                	or	a0,a0,a1
    80401556:	00855593          	srli	a1,a0,0x8
    8040155a:	8d4d                	or	a0,a0,a1
    8040155c:	01055593          	srli	a1,a0,0x10
    80401560:	8d4d                	or	a0,a0,a1
    80401562:	02055593          	srli	a1,a0,0x20
    80401566:	8d4d                	or	a0,a0,a1
    80401568:	fff54513          	not	a0,a0
    8040156c:	00155593          	srli	a1,a0,0x1
    80401570:	05555637          	lui	a2,0x5555
    80401574:	5556061b          	addiw	a2,a2,1365
    80401578:	0632                	slli	a2,a2,0xc
    8040157a:	55560613          	addi	a2,a2,1365 # 5555555 <BASE_ADDRESS-0x7aeaaaab>
    8040157e:	0632                	slli	a2,a2,0xc
    80401580:	55560613          	addi	a2,a2,1365
    80401584:	0632                	slli	a2,a2,0xc
    80401586:	55560613          	addi	a2,a2,1365
    8040158a:	8df1                	and	a1,a1,a2
    8040158c:	8d0d                	sub	a0,a0,a1
    8040158e:	033335b7          	lui	a1,0x3333
    80401592:	3335859b          	addiw	a1,a1,819
    80401596:	05b2                	slli	a1,a1,0xc
    80401598:	33358593          	addi	a1,a1,819 # 3333333 <BASE_ADDRESS-0x7d0ccccd>
    8040159c:	05b2                	slli	a1,a1,0xc
    8040159e:	33358593          	addi	a1,a1,819
    804015a2:	05b2                	slli	a1,a1,0xc
    804015a4:	33358593          	addi	a1,a1,819
    804015a8:	00b57633          	and	a2,a0,a1
    804015ac:	8109                	srli	a0,a0,0x2
    804015ae:	8d6d                	and	a0,a0,a1
    804015b0:	9532                	add	a0,a0,a2
    804015b2:	00455593          	srli	a1,a0,0x4
    804015b6:	952e                	add	a0,a0,a1
    804015b8:	00f0f5b7          	lui	a1,0xf0f
    804015bc:	0f15859b          	addiw	a1,a1,241
    804015c0:	05b2                	slli	a1,a1,0xc
    804015c2:	f0f58593          	addi	a1,a1,-241 # f0ef0f <BASE_ADDRESS-0x7f4f10f1>
    804015c6:	05b2                	slli	a1,a1,0xc
    804015c8:	0f158593          	addi	a1,a1,241
    804015cc:	05b2                	slli	a1,a1,0xc
    804015ce:	f0f58593          	addi	a1,a1,-241
    804015d2:	8d6d                	and	a0,a0,a1
    804015d4:	010105b7          	lui	a1,0x1010
    804015d8:	1015859b          	addiw	a1,a1,257
    804015dc:	05c2                	slli	a1,a1,0x10
    804015de:	10158593          	addi	a1,a1,257 # 1010101 <BASE_ADDRESS-0x7f3efeff>
    804015e2:	05c2                	slli	a1,a1,0x10
    804015e4:	10158593          	addi	a1,a1,257
    804015e8:	02b50533          	mul	a0,a0,a1
    804015ec:	9161                	srli	a0,a0,0x38
    804015ee:	1501                	addi	a0,a0,-32
    804015f0:	0025551b          	srliw	a0,a0,0x2
    804015f4:	00754513          	xori	a0,a0,7
    804015f8:	e02a                	sd	a0,0(sp)
    804015fa:	4515                	li	a0,5
    804015fc:	1502                	slli	a0,a0,0x20
    804015fe:	00aae9b3          	or	s3,s5,a0
    80401602:	448d                	li	s1,3
    80401604:	b599                	j	8040144a <_ZN41_$LT$char$u20$as$u20$core..fmt..Debug$GT$3fmt17hebe9382637ae1ba8E+0xb8>

0000000080401606 <_ZN4core5slice6memchr19memchr_general_case17h70a7e3c60d21a994E>:
    80401606:	1141                	addi	sp,sp,-16
    80401608:	e406                	sd	ra,8(sp)
    8040160a:	00758693          	addi	a3,a1,7
    8040160e:	9ae1                	andi	a3,a3,-8
    80401610:	8e8d                	sub	a3,a3,a1
    80401612:	0ff57813          	andi	a6,a0,255
    80401616:	c68d                	beqz	a3,80401640 <_ZN4core5slice6memchr19memchr_general_case17h70a7e3c60d21a994E+0x3a>
    80401618:	8532                	mv	a0,a2
    8040161a:	00d66363          	bltu	a2,a3,80401620 <_ZN4core5slice6memchr19memchr_general_case17h70a7e3c60d21a994E+0x1a>
    8040161e:	8536                	mv	a0,a3
    80401620:	c105                	beqz	a0,80401640 <_ZN4core5slice6memchr19memchr_general_case17h70a7e3c60d21a994E+0x3a>
    80401622:	4681                	li	a3,0
    80401624:	00d58733          	add	a4,a1,a3
    80401628:	00074703          	lbu	a4,0(a4)
    8040162c:	0d070463          	beq	a4,a6,804016f4 <_ZN4core5slice6memchr19memchr_general_case17h70a7e3c60d21a994E+0xee>
    80401630:	0685                	addi	a3,a3,1
    80401632:	fed519e3          	bne	a0,a3,80401624 <_ZN4core5slice6memchr19memchr_general_case17h70a7e3c60d21a994E+0x1e>
    80401636:	ff060893          	addi	a7,a2,-16
    8040163a:	00a8f663          	bgeu	a7,a0,80401646 <_ZN4core5slice6memchr19memchr_general_case17h70a7e3c60d21a994E+0x40>
    8040163e:	a049                	j	804016c0 <_ZN4core5slice6memchr19memchr_general_case17h70a7e3c60d21a994E+0xba>
    80401640:	4501                	li	a0,0
    80401642:	ff060893          	addi	a7,a2,-16
    80401646:	feff06b7          	lui	a3,0xfeff0
    8040164a:	eff6869b          	addiw	a3,a3,-257
    8040164e:	06c2                	slli	a3,a3,0x10
    80401650:	eff68693          	addi	a3,a3,-257 # fffffffffefefeff <end_bss+0xffffffff7ebebedf>
    80401654:	06c2                	slli	a3,a3,0x10
    80401656:	eff68293          	addi	t0,a3,-257
    8040165a:	76c1                	lui	a3,0xffff0
    8040165c:	1016869b          	addiw	a3,a3,257
    80401660:	06c2                	slli	a3,a3,0x10
    80401662:	10168693          	addi	a3,a3,257 # ffffffffffff0101 <end_bss+0xffffffff7fbec0e1>
    80401666:	06c2                	slli	a3,a3,0x10
    80401668:	10168693          	addi	a3,a3,257
    8040166c:	06be                	slli	a3,a3,0xf
    8040166e:	08068313          	addi	t1,a3,128
    80401672:	010106b7          	lui	a3,0x1010
    80401676:	1016869b          	addiw	a3,a3,257
    8040167a:	06c2                	slli	a3,a3,0x10
    8040167c:	10168693          	addi	a3,a3,257 # 1010101 <BASE_ADDRESS-0x7f3efeff>
    80401680:	06c2                	slli	a3,a3,0x10
    80401682:	10168693          	addi	a3,a3,257
    80401686:	02d803b3          	mul	t2,a6,a3
    8040168a:	00a587b3          	add	a5,a1,a0
    8040168e:	6398                	ld	a4,0(a5)
    80401690:	679c                	ld	a5,8(a5)
    80401692:	00774733          	xor	a4,a4,t2
    80401696:	fff74693          	not	a3,a4
    8040169a:	9716                	add	a4,a4,t0
    8040169c:	0066f6b3          	and	a3,a3,t1
    804016a0:	8ef9                	and	a3,a3,a4
    804016a2:	0077c733          	xor	a4,a5,t2
    804016a6:	fff74793          	not	a5,a4
    804016aa:	9716                	add	a4,a4,t0
    804016ac:	0067f7b3          	and	a5,a5,t1
    804016b0:	8f7d                	and	a4,a4,a5
    804016b2:	8ed9                	or	a3,a3,a4
    804016b4:	e681                	bnez	a3,804016bc <_ZN4core5slice6memchr19memchr_general_case17h70a7e3c60d21a994E+0xb6>
    804016b6:	0541                	addi	a0,a0,16
    804016b8:	fca8f9e3          	bgeu	a7,a0,8040168a <_ZN4core5slice6memchr19memchr_general_case17h70a7e3c60d21a994E+0x84>
    804016bc:	02a66e63          	bltu	a2,a0,804016f8 <.LBB203_24>
    804016c0:	4681                	li	a3,0
    804016c2:	00c51463          	bne	a0,a2,804016ca <_ZN4core5slice6memchr19memchr_general_case17h70a7e3c60d21a994E+0xc4>
    804016c6:	4581                	li	a1,0
    804016c8:	a005                	j	804016e8 <_ZN4core5slice6memchr19memchr_general_case17h70a7e3c60d21a994E+0xe2>
    804016ca:	8e09                	sub	a2,a2,a0
    804016cc:	95aa                	add	a1,a1,a0
    804016ce:	00d58733          	add	a4,a1,a3
    804016d2:	00074703          	lbu	a4,0(a4)
    804016d6:	01070863          	beq	a4,a6,804016e6 <_ZN4core5slice6memchr19memchr_general_case17h70a7e3c60d21a994E+0xe0>
    804016da:	0685                	addi	a3,a3,1
    804016dc:	fed619e3          	bne	a2,a3,804016ce <_ZN4core5slice6memchr19memchr_general_case17h70a7e3c60d21a994E+0xc8>
    804016e0:	4581                	li	a1,0
    804016e2:	86b2                	mv	a3,a2
    804016e4:	a011                	j	804016e8 <_ZN4core5slice6memchr19memchr_general_case17h70a7e3c60d21a994E+0xe2>
    804016e6:	4585                	li	a1,1
    804016e8:	96aa                	add	a3,a3,a0
    804016ea:	852e                	mv	a0,a1
    804016ec:	85b6                	mv	a1,a3
    804016ee:	60a2                	ld	ra,8(sp)
    804016f0:	0141                	addi	sp,sp,16
    804016f2:	8082                	ret
    804016f4:	4585                	li	a1,1
    804016f6:	bfd5                	j	804016ea <_ZN4core5slice6memchr19memchr_general_case17h70a7e3c60d21a994E+0xe4>

00000000804016f8 <.LBB203_24>:
    804016f8:	00002697          	auipc	a3,0x2
    804016fc:	ba868693          	addi	a3,a3,-1112 # 804032a0 <.Lanon.9d4bfc86079e95d674f3cded52b1db19.242>
    80401700:	85b2                	mv	a1,a2
    80401702:	8636                	mv	a2,a3
    80401704:	00000097          	auipc	ra,0x0
    80401708:	00a080e7          	jalr	10(ra) # 8040170e <_ZN4core5slice5index26slice_start_index_len_fail17h43348ae2a84bde06E>
	...

000000008040170e <_ZN4core5slice5index26slice_start_index_len_fail17h43348ae2a84bde06E>:
    8040170e:	7159                	addi	sp,sp,-112
    80401710:	f486                	sd	ra,104(sp)
    80401712:	e42a                	sd	a0,8(sp)
    80401714:	e82e                	sd	a1,16(sp)
    80401716:	0028                	addi	a0,sp,8
    80401718:	e4aa                	sd	a0,72(sp)

000000008040171a <.LBB205_1>:
    8040171a:	00001517          	auipc	a0,0x1
    8040171e:	df250513          	addi	a0,a0,-526 # 8040250c <_ZN4core3fmt3num3imp52_$LT$impl$u20$core..fmt..Display$u20$for$u20$u64$GT$3fmt17h056fc685b1c7ea74E>
    80401722:	e8aa                	sd	a0,80(sp)
    80401724:	080c                	addi	a1,sp,16
    80401726:	ecae                	sd	a1,88(sp)
    80401728:	f0aa                	sd	a0,96(sp)

000000008040172a <.LBB205_2>:
    8040172a:	00002517          	auipc	a0,0x2
    8040172e:	bc650513          	addi	a0,a0,-1082 # 804032f0 <.Lanon.9d4bfc86079e95d674f3cded52b1db19.247>
    80401732:	ec2a                	sd	a0,24(sp)
    80401734:	4509                	li	a0,2
    80401736:	f02a                	sd	a0,32(sp)
    80401738:	f402                	sd	zero,40(sp)
    8040173a:	00ac                	addi	a1,sp,72
    8040173c:	fc2e                	sd	a1,56(sp)
    8040173e:	e0aa                	sd	a0,64(sp)
    80401740:	0828                	addi	a0,sp,24
    80401742:	85b2                	mv	a1,a2
    80401744:	fffff097          	auipc	ra,0xfffff
    80401748:	f00080e7          	jalr	-256(ra) # 80400644 <_ZN4core9panicking9panic_fmt17ha4e041b5d1f17023E>
	...

000000008040174e <_ZN4core5slice5index24slice_end_index_len_fail17h397499141087200aE>:
    8040174e:	7159                	addi	sp,sp,-112
    80401750:	f486                	sd	ra,104(sp)
    80401752:	e42a                	sd	a0,8(sp)
    80401754:	e82e                	sd	a1,16(sp)
    80401756:	0028                	addi	a0,sp,8
    80401758:	e4aa                	sd	a0,72(sp)

000000008040175a <.LBB206_1>:
    8040175a:	00001517          	auipc	a0,0x1
    8040175e:	db250513          	addi	a0,a0,-590 # 8040250c <_ZN4core3fmt3num3imp52_$LT$impl$u20$core..fmt..Display$u20$for$u20$u64$GT$3fmt17h056fc685b1c7ea74E>
    80401762:	e8aa                	sd	a0,80(sp)
    80401764:	080c                	addi	a1,sp,16
    80401766:	ecae                	sd	a1,88(sp)
    80401768:	f0aa                	sd	a0,96(sp)

000000008040176a <.LBB206_2>:
    8040176a:	00002517          	auipc	a0,0x2
    8040176e:	ba650513          	addi	a0,a0,-1114 # 80403310 <.Lanon.9d4bfc86079e95d674f3cded52b1db19.249>
    80401772:	ec2a                	sd	a0,24(sp)
    80401774:	4509                	li	a0,2
    80401776:	f02a                	sd	a0,32(sp)
    80401778:	f402                	sd	zero,40(sp)
    8040177a:	00ac                	addi	a1,sp,72
    8040177c:	fc2e                	sd	a1,56(sp)
    8040177e:	e0aa                	sd	a0,64(sp)
    80401780:	0828                	addi	a0,sp,24
    80401782:	85b2                	mv	a1,a2
    80401784:	fffff097          	auipc	ra,0xfffff
    80401788:	ec0080e7          	jalr	-320(ra) # 80400644 <_ZN4core9panicking9panic_fmt17ha4e041b5d1f17023E>
	...

000000008040178e <_ZN4core5slice5index22slice_index_order_fail17h17f07731262cfc7fE>:
    8040178e:	7159                	addi	sp,sp,-112
    80401790:	f486                	sd	ra,104(sp)
    80401792:	e42a                	sd	a0,8(sp)
    80401794:	e82e                	sd	a1,16(sp)
    80401796:	0028                	addi	a0,sp,8
    80401798:	e4aa                	sd	a0,72(sp)

000000008040179a <.LBB207_1>:
    8040179a:	00001517          	auipc	a0,0x1
    8040179e:	d7250513          	addi	a0,a0,-654 # 8040250c <_ZN4core3fmt3num3imp52_$LT$impl$u20$core..fmt..Display$u20$for$u20$u64$GT$3fmt17h056fc685b1c7ea74E>
    804017a2:	e8aa                	sd	a0,80(sp)
    804017a4:	080c                	addi	a1,sp,16
    804017a6:	ecae                	sd	a1,88(sp)
    804017a8:	f0aa                	sd	a0,96(sp)

00000000804017aa <.LBB207_2>:
    804017aa:	00002517          	auipc	a0,0x2
    804017ae:	bae50513          	addi	a0,a0,-1106 # 80403358 <.Lanon.9d4bfc86079e95d674f3cded52b1db19.252>
    804017b2:	ec2a                	sd	a0,24(sp)
    804017b4:	4509                	li	a0,2
    804017b6:	f02a                	sd	a0,32(sp)
    804017b8:	f402                	sd	zero,40(sp)
    804017ba:	00ac                	addi	a1,sp,72
    804017bc:	fc2e                	sd	a1,56(sp)
    804017be:	e0aa                	sd	a0,64(sp)
    804017c0:	0828                	addi	a0,sp,24
    804017c2:	85b2                	mv	a1,a2
    804017c4:	fffff097          	auipc	ra,0xfffff
    804017c8:	e80080e7          	jalr	-384(ra) # 80400644 <_ZN4core9panicking9panic_fmt17ha4e041b5d1f17023E>
	...

00000000804017ce <_ZN4core3str8converts9from_utf817h36a155da9055aca2E>:
    804017ce:	711d                	addi	sp,sp,-96
    804017d0:	eca2                	sd	s0,88(sp)
    804017d2:	e8a6                	sd	s1,80(sp)
    804017d4:	e4ca                	sd	s2,72(sp)
    804017d6:	e0ce                	sd	s3,64(sp)
    804017d8:	fc52                	sd	s4,56(sp)
    804017da:	f856                	sd	s5,48(sp)
    804017dc:	f45a                	sd	s6,40(sp)
    804017de:	f05e                	sd	s7,32(sp)
    804017e0:	ec62                	sd	s8,24(sp)
    804017e2:	e866                	sd	s9,16(sp)
    804017e4:	e46a                	sd	s10,8(sp)
    804017e6:	ff160693          	addi	a3,a2,-15
    804017ea:	00d63733          	sltu	a4,a2,a3
    804017ee:	4d01                	li	s10,0
    804017f0:	e311                	bnez	a4,804017f4 <_ZN4core3str8converts9from_utf817h36a155da9055aca2E+0x26>
    804017f2:	8d36                	mv	s10,a3
    804017f4:	20060463          	beqz	a2,804019fc <.LBB212_49+0x1f0>
    804017f8:	4681                	li	a3,0
    804017fa:	00758713          	addi	a4,a1,7
    804017fe:	9b61                	andi	a4,a4,-8
    80401800:	40b70833          	sub	a6,a4,a1
    80401804:	00180713          	addi	a4,a6,1
    80401808:	00173c13          	seqz	s8,a4

000000008040180c <.LBB212_49>:
    8040180c:	00002897          	auipc	a7,0x2
    80401810:	b6c88893          	addi	a7,a7,-1172 # 80403378 <_ZN4core3str11validations15UTF8_CHAR_WIDTH17h8bfa167165964ee9E>
    80401814:	4291                	li	t0,4
    80401816:	0f400313          	li	t1,244
    8040181a:	08000393          	li	t2,128
    8040181e:	0f000e13          	li	t3,240
    80401822:	03000e93          	li	t4,48
    80401826:	4f09                	li	t5,2
    80401828:	5ffd                	li	t6,-1
    8040182a:	0bf00913          	li	s2,191
    8040182e:	4b8d                	li	s7,3
    80401830:	0ed00b13          	li	s6,237
    80401834:	0e000993          	li	s3,224
    80401838:	0a000a13          	li	s4,160
    8040183c:	4aad                	li	s5,11
    8040183e:	7741                	lui	a4,0xffff0
    80401840:	1017071b          	addiw	a4,a4,257
    80401844:	0742                	slli	a4,a4,0x10
    80401846:	10170713          	addi	a4,a4,257 # ffffffffffff0101 <end_bss+0xffffffff7fbec0e1>
    8040184a:	0742                	slli	a4,a4,0x10
    8040184c:	10170713          	addi	a4,a4,257
    80401850:	073e                	slli	a4,a4,0xf
    80401852:	08070413          	addi	s0,a4,128
    80401856:	a029                	j	80401860 <.LBB212_49+0x54>
    80401858:	00178693          	addi	a3,a5,1 # 1c0001 <BASE_ADDRESS-0x8023ffff>
    8040185c:	1ac6f063          	bgeu	a3,a2,804019fc <.LBB212_49+0x1f0>
    80401860:	00d58733          	add	a4,a1,a3
    80401864:	00074783          	lbu	a5,0(a4)
    80401868:	03879713          	slli	a4,a5,0x38
    8040186c:	43875493          	srai	s1,a4,0x38
    80401870:	0004cc63          	bltz	s1,80401888 <.LBB212_49+0x7c>
    80401874:	000c1663          	bnez	s8,80401880 <.LBB212_49+0x74>
    80401878:	40d80733          	sub	a4,a6,a3
    8040187c:	8b1d                	andi	a4,a4,7
    8040187e:	cf05                	beqz	a4,804018b6 <.LBB212_49+0xaa>
    80401880:	0685                	addi	a3,a3,1
    80401882:	fcc6efe3          	bltu	a3,a2,80401860 <.LBB212_49+0x54>
    80401886:	aa9d                	j	804019fc <.LBB212_49+0x1f0>
    80401888:	01178733          	add	a4,a5,a7
    8040188c:	00074703          	lbu	a4,0(a4)
    80401890:	04570b63          	beq	a4,t0,804018e6 <.LBB212_49+0xda>
    80401894:	07770b63          	beq	a4,s7,8040190a <.LBB212_49+0xfe>
    80401898:	17e71663          	bne	a4,t5,80401a04 <.LBB212_49+0x1f8>
    8040189c:	00168793          	addi	a5,a3,1
    804018a0:	16c7f563          	bgeu	a5,a2,80401a0a <.LBB212_49+0x1fe>
    804018a4:	00f58733          	add	a4,a1,a5
    804018a8:	00074703          	lbu	a4,0(a4)
    804018ac:	0c077713          	andi	a4,a4,192
    804018b0:	fa7704e3          	beq	a4,t2,80401858 <.LBB212_49+0x4c>
    804018b4:	aa81                	j	80401a04 <.LBB212_49+0x1f8>
    804018b6:	01a6fc63          	bgeu	a3,s10,804018ce <.LBB212_49+0xc2>
    804018ba:	00d58733          	add	a4,a1,a3
    804018be:	631c                	ld	a5,0(a4)
    804018c0:	6718                	ld	a4,8(a4)
    804018c2:	8f5d                	or	a4,a4,a5
    804018c4:	8f61                	and	a4,a4,s0
    804018c6:	e701                	bnez	a4,804018ce <.LBB212_49+0xc2>
    804018c8:	06c1                	addi	a3,a3,16
    804018ca:	ffa6e8e3          	bltu	a3,s10,804018ba <.LBB212_49+0xae>
    804018ce:	fac6fae3          	bgeu	a3,a2,80401882 <.LBB212_49+0x76>
    804018d2:	00d58733          	add	a4,a1,a3
    804018d6:	00070703          	lb	a4,0(a4)
    804018da:	fa0744e3          	bltz	a4,80401882 <.LBB212_49+0x76>
    804018de:	0685                	addi	a3,a3,1
    804018e0:	fed619e3          	bne	a2,a3,804018d2 <.LBB212_49+0xc6>
    804018e4:	aa21                	j	804019fc <.LBB212_49+0x1f0>
    804018e6:	00168713          	addi	a4,a3,1
    804018ea:	12c77063          	bgeu	a4,a2,80401a0a <.LBB212_49+0x1fe>
    804018ee:	972e                	add	a4,a4,a1
    804018f0:	00074703          	lbu	a4,0(a4)
    804018f4:	02678b63          	beq	a5,t1,8040192a <.LBB212_49+0x11e>
    804018f8:	05c79363          	bne	a5,t3,8040193e <.LBB212_49+0x132>
    804018fc:	07070713          	addi	a4,a4,112
    80401900:	0ff77713          	andi	a4,a4,255
    80401904:	05d76d63          	bltu	a4,t4,8040195e <.LBB212_49+0x152>
    80401908:	a8f5                	j	80401a04 <.LBB212_49+0x1f8>
    8040190a:	00168713          	addi	a4,a3,1
    8040190e:	0ec77e63          	bgeu	a4,a2,80401a0a <.LBB212_49+0x1fe>
    80401912:	972e                	add	a4,a4,a1
    80401914:	00074c83          	lbu	s9,0(a4)
    80401918:	07678c63          	beq	a5,s6,80401990 <.LBB212_49+0x184>
    8040191c:	09379463          	bne	a5,s3,804019a4 <.LBB212_49+0x198>
    80401920:	0e0cf713          	andi	a4,s9,224
    80401924:	0b470d63          	beq	a4,s4,804019de <.LBB212_49+0x1d2>
    80401928:	a8f1                	j	80401a04 <.LBB212_49+0x1f8>
    8040192a:	03871793          	slli	a5,a4,0x38
    8040192e:	97e1                	srai	a5,a5,0x38
    80401930:	0007a793          	slti	a5,a5,0
    80401934:	09073713          	sltiu	a4,a4,144
    80401938:	8f7d                	and	a4,a4,a5
    8040193a:	e315                	bnez	a4,8040195e <.LBB212_49+0x152>
    8040193c:	a0e1                	j	80401a04 <.LBB212_49+0x1f8>
    8040193e:	00f48793          	addi	a5,s1,15
    80401942:	0ff7f793          	andi	a5,a5,255
    80401946:	00ff37b3          	sltu	a5,t5,a5
    8040194a:	03871493          	slli	s1,a4,0x38
    8040194e:	94e1                	srai	s1,s1,0x38
    80401950:	009fa4b3          	slt	s1,t6,s1
    80401954:	8fc5                	or	a5,a5,s1
    80401956:	00e93733          	sltu	a4,s2,a4
    8040195a:	8f5d                	or	a4,a4,a5
    8040195c:	e745                	bnez	a4,80401a04 <.LBB212_49+0x1f8>
    8040195e:	00268713          	addi	a4,a3,2
    80401962:	0ac77463          	bgeu	a4,a2,80401a0a <.LBB212_49+0x1fe>
    80401966:	972e                	add	a4,a4,a1
    80401968:	00074703          	lbu	a4,0(a4)
    8040196c:	0c077713          	andi	a4,a4,192
    80401970:	4485                	li	s1,1
    80401972:	0c771163          	bne	a4,t2,80401a34 <.LBB212_49+0x228>
    80401976:	00368793          	addi	a5,a3,3
    8040197a:	08c7f863          	bgeu	a5,a2,80401a0a <.LBB212_49+0x1fe>
    8040197e:	00f58733          	add	a4,a1,a5
    80401982:	00074703          	lbu	a4,0(a4)
    80401986:	0c077713          	andi	a4,a4,192
    8040198a:	ec7707e3          	beq	a4,t2,80401858 <.LBB212_49+0x4c>
    8040198e:	a06d                	j	80401a38 <.LBB212_49+0x22c>
    80401990:	038c9713          	slli	a4,s9,0x38
    80401994:	9761                	srai	a4,a4,0x38
    80401996:	00072713          	slti	a4,a4,0
    8040199a:	0a0cb793          	sltiu	a5,s9,160
    8040199e:	8f7d                	and	a4,a4,a5
    804019a0:	ef1d                	bnez	a4,804019de <.LBB212_49+0x1d2>
    804019a2:	a08d                	j	80401a04 <.LBB212_49+0x1f8>
    804019a4:	01f48713          	addi	a4,s1,31
    804019a8:	0ff77793          	andi	a5,a4,255
    804019ac:	038c9713          	slli	a4,s9,0x38
    804019b0:	00faea63          	bltu	s5,a5,804019c4 <.LBB212_49+0x1b8>
    804019b4:	9761                	srai	a4,a4,0x38
    804019b6:	00072713          	slti	a4,a4,0
    804019ba:	0c0cb793          	sltiu	a5,s9,192
    804019be:	8f7d                	and	a4,a4,a5
    804019c0:	ef19                	bnez	a4,804019de <.LBB212_49+0x1d2>
    804019c2:	a089                	j	80401a04 <.LBB212_49+0x1f8>
    804019c4:	ffe4f793          	andi	a5,s1,-2
    804019c8:	07c9                	addi	a5,a5,18
    804019ca:	00f037b3          	snez	a5,a5
    804019ce:	9761                	srai	a4,a4,0x38
    804019d0:	00efa733          	slt	a4,t6,a4
    804019d4:	8f5d                	or	a4,a4,a5
    804019d6:	019937b3          	sltu	a5,s2,s9
    804019da:	8f5d                	or	a4,a4,a5
    804019dc:	e705                	bnez	a4,80401a04 <.LBB212_49+0x1f8>
    804019de:	00268793          	addi	a5,a3,2
    804019e2:	02c7f463          	bgeu	a5,a2,80401a0a <.LBB212_49+0x1fe>
    804019e6:	00f58733          	add	a4,a1,a5
    804019ea:	00074703          	lbu	a4,0(a4)
    804019ee:	0c077713          	andi	a4,a4,192
    804019f2:	e67703e3          	beq	a4,t2,80401858 <.LBB212_49+0x4c>
    804019f6:	4485                	li	s1,1
    804019f8:	4589                	li	a1,2
    804019fa:	a811                	j	80401a0e <.LBB212_49+0x202>
    804019fc:	4681                	li	a3,0
    804019fe:	e50c                	sd	a1,8(a0)
    80401a00:	e910                	sd	a2,16(a0)
    80401a02:	a819                	j	80401a18 <.LBB212_49+0x20c>
    80401a04:	4585                	li	a1,1
    80401a06:	4485                	li	s1,1
    80401a08:	a019                	j	80401a0e <.LBB212_49+0x202>
    80401a0a:	4581                	li	a1,0
    80401a0c:	4481                	li	s1,0
    80401a0e:	05a2                	slli	a1,a1,0x8
    80401a10:	8dc5                	or	a1,a1,s1
    80401a12:	e514                	sd	a3,8(a0)
    80401a14:	e90c                	sd	a1,16(a0)
    80401a16:	4685                	li	a3,1
    80401a18:	e114                	sd	a3,0(a0)
    80401a1a:	6d22                	ld	s10,8(sp)
    80401a1c:	6cc2                	ld	s9,16(sp)
    80401a1e:	6c62                	ld	s8,24(sp)
    80401a20:	7b82                	ld	s7,32(sp)
    80401a22:	7b22                	ld	s6,40(sp)
    80401a24:	7ac2                	ld	s5,48(sp)
    80401a26:	7a62                	ld	s4,56(sp)
    80401a28:	6986                	ld	s3,64(sp)
    80401a2a:	6926                	ld	s2,72(sp)
    80401a2c:	64c6                	ld	s1,80(sp)
    80401a2e:	6466                	ld	s0,88(sp)
    80401a30:	6125                	addi	sp,sp,96
    80401a32:	8082                	ret
    80401a34:	4589                	li	a1,2
    80401a36:	bfe1                	j	80401a0e <.LBB212_49+0x202>
    80401a38:	458d                	li	a1,3
    80401a3a:	bfd1                	j	80401a0e <.LBB212_49+0x202>

0000000080401a3c <_ZN4core3str16slice_error_fail17he9562343589499f6E>:
    80401a3c:	7115                	addi	sp,sp,-224
    80401a3e:	ed86                	sd	ra,216(sp)
    80401a40:	e432                	sd	a2,8(sp)
    80401a42:	e836                	sd	a3,16(sp)
    80401a44:	10100793          	li	a5,257
    80401a48:	4885                	li	a7,1
    80401a4a:	882e                	mv	a6,a1
    80401a4c:	04f5e263          	bltu	a1,a5,80401a90 <_ZN4core3str16slice_error_fail17he9562343589499f6E+0x54>
    80401a50:	4381                	li	t2,0
    80401a52:	f0158893          	addi	a7,a1,-255
    80401a56:	10050293          	addi	t0,a0,256
    80401a5a:	fbf00313          	li	t1,-65
    80401a5e:	10038813          	addi	a6,t2,256
    80401a62:	00b87863          	bgeu	a6,a1,80401a72 <_ZN4core3str16slice_error_fail17he9562343589499f6E+0x36>
    80401a66:	007287b3          	add	a5,t0,t2
    80401a6a:	00078783          	lb	a5,0(a5)
    80401a6e:	02f34b63          	blt	t1,a5,80401aa4 <.LBB228_49+0xc>
    80401a72:	0ff38793          	addi	a5,t2,255
    80401a76:	00f03833          	snez	a6,a5
    80401a7a:	0078c7b3          	xor	a5,a7,t2
    80401a7e:	00f037b3          	snez	a5,a5
    80401a82:	00f877b3          	and	a5,a6,a5
    80401a86:	13fd                	addi	t2,t2,-1
    80401a88:	fbf9                	bnez	a5,80401a5e <_ZN4core3str16slice_error_fail17he9562343589499f6E+0x22>
    80401a8a:	4881                	li	a7,0
    80401a8c:	10038813          	addi	a6,t2,256
    80401a90:	ec2a                	sd	a0,24(sp)
    80401a92:	f042                	sd	a6,32(sp)
    80401a94:	00089d63          	bnez	a7,80401aae <.LBB228_49+0x16>

0000000080401a98 <.LBB228_49>:
    80401a98:	00002797          	auipc	a5,0x2
    80401a9c:	9e078793          	addi	a5,a5,-1568 # 80403478 <.Lanon.9d4bfc86079e95d674f3cded52b1db19.310>
    80401aa0:	4815                	li	a6,5
    80401aa2:	a819                	j	80401ab8 <.LBB228_50+0x8>
    80401aa4:	4881                	li	a7,0
    80401aa6:	ec2a                	sd	a0,24(sp)
    80401aa8:	f042                	sd	a6,32(sp)
    80401aaa:	fe0887e3          	beqz	a7,80401a98 <.LBB228_49>
    80401aae:	4801                	li	a6,0

0000000080401ab0 <.LBB228_50>:
    80401ab0:	00001797          	auipc	a5,0x1
    80401ab4:	4d078793          	addi	a5,a5,1232 # 80402f80 <.Lanon.9d4bfc86079e95d674f3cded52b1db19.33>
    80401ab8:	f43e                	sd	a5,40(sp)
    80401aba:	00c5b8b3          	sltu	a7,a1,a2
    80401abe:	0018c293          	xori	t0,a7,1
    80401ac2:	00d5b7b3          	sltu	a5,a1,a3
    80401ac6:	0017c793          	xori	a5,a5,1
    80401aca:	00f2f7b3          	and	a5,t0,a5
    80401ace:	f842                	sd	a6,48(sp)
    80401ad0:	ef8d                	bnez	a5,80401b0a <.LBB228_53+0xe>
    80401ad2:	00089363          	bnez	a7,80401ad8 <.LBB228_50+0x28>
    80401ad6:	8636                	mv	a2,a3
    80401ad8:	e4b2                	sd	a2,72(sp)
    80401ada:	00a8                	addi	a0,sp,72
    80401adc:	e52a                	sd	a0,136(sp)

0000000080401ade <.LBB228_51>:
    80401ade:	00001517          	auipc	a0,0x1
    80401ae2:	a2e50513          	addi	a0,a0,-1490 # 8040250c <_ZN4core3fmt3num3imp52_$LT$impl$u20$core..fmt..Display$u20$for$u20$u64$GT$3fmt17h056fc685b1c7ea74E>
    80401ae6:	e92a                	sd	a0,144(sp)
    80401ae8:	0828                	addi	a0,sp,24
    80401aea:	ed2a                	sd	a0,152(sp)

0000000080401aec <.LBB228_52>:
    80401aec:	00001517          	auipc	a0,0x1
    80401af0:	e5a50513          	addi	a0,a0,-422 # 80402946 <_ZN44_$LT$$RF$T$u20$as$u20$core..fmt..Display$GT$3fmt17h0ab56ae6638005b3E>
    80401af4:	f12a                	sd	a0,160(sp)
    80401af6:	102c                	addi	a1,sp,40
    80401af8:	f52e                	sd	a1,168(sp)
    80401afa:	f92a                	sd	a0,176(sp)

0000000080401afc <.LBB228_53>:
    80401afc:	00002517          	auipc	a0,0x2
    80401b00:	9a450513          	addi	a0,a0,-1628 # 804034a0 <.Lanon.9d4bfc86079e95d674f3cded52b1db19.313>
    80401b04:	ecaa                	sd	a0,88(sp)
    80401b06:	450d                	li	a0,3
    80401b08:	aadd                	j	80401cfe <.LBB228_62+0xc>
    80401b0a:	02c6fd63          	bgeu	a3,a2,80401b44 <.LBB228_56+0xe>
    80401b0e:	0028                	addi	a0,sp,8
    80401b10:	e52a                	sd	a0,136(sp)

0000000080401b12 <.LBB228_54>:
    80401b12:	00001517          	auipc	a0,0x1
    80401b16:	9fa50513          	addi	a0,a0,-1542 # 8040250c <_ZN4core3fmt3num3imp52_$LT$impl$u20$core..fmt..Display$u20$for$u20$u64$GT$3fmt17h056fc685b1c7ea74E>
    80401b1a:	e92a                	sd	a0,144(sp)
    80401b1c:	080c                	addi	a1,sp,16
    80401b1e:	ed2e                	sd	a1,152(sp)
    80401b20:	f12a                	sd	a0,160(sp)
    80401b22:	0828                	addi	a0,sp,24
    80401b24:	f52a                	sd	a0,168(sp)

0000000080401b26 <.LBB228_55>:
    80401b26:	00001517          	auipc	a0,0x1
    80401b2a:	e2050513          	addi	a0,a0,-480 # 80402946 <_ZN44_$LT$$RF$T$u20$as$u20$core..fmt..Display$GT$3fmt17h0ab56ae6638005b3E>
    80401b2e:	f92a                	sd	a0,176(sp)
    80401b30:	102c                	addi	a1,sp,40
    80401b32:	fd2e                	sd	a1,184(sp)
    80401b34:	e1aa                	sd	a0,192(sp)

0000000080401b36 <.LBB228_56>:
    80401b36:	00002517          	auipc	a0,0x2
    80401b3a:	9aa50513          	addi	a0,a0,-1622 # 804034e0 <.Lanon.9d4bfc86079e95d674f3cded52b1db19.317>
    80401b3e:	ecaa                	sd	a0,88(sp)
    80401b40:	4511                	li	a0,4
    80401b42:	aa75                	j	80401cfe <.LBB228_62+0xc>
    80401b44:	00163813          	seqz	a6,a2
    80401b48:	00c5c7b3          	xor	a5,a1,a2
    80401b4c:	0017b793          	seqz	a5,a5
    80401b50:	00f867b3          	or	a5,a6,a5
    80401b54:	c399                	beqz	a5,80401b5a <.LBB228_56+0x24>
    80401b56:	8636                	mv	a2,a3
    80401b58:	a819                	j	80401b6e <.LBB228_56+0x38>
    80401b5a:	00b67a63          	bgeu	a2,a1,80401b6e <.LBB228_56+0x38>
    80401b5e:	00c507b3          	add	a5,a0,a2
    80401b62:	00078803          	lb	a6,0(a5)
    80401b66:	fc000793          	li	a5,-64
    80401b6a:	fef856e3          	bge	a6,a5,80401b56 <.LBB228_56+0x20>
    80401b6e:	00163693          	seqz	a3,a2
    80401b72:	00b647b3          	xor	a5,a2,a1
    80401b76:	0017b793          	seqz	a5,a5
    80401b7a:	8edd                	or	a3,a3,a5
    80401b7c:	fc32                	sd	a2,56(sp)
    80401b7e:	ca81                	beqz	a3,80401b8e <.LBB228_56+0x58>
    80401b80:	87b2                	mv	a5,a2
    80401b82:	04410313          	addi	t1,sp,68
    80401b86:	863e                	mv	a2,a5
    80401b88:	02b60f63          	beq	a2,a1,80401bc6 <.LBB228_57>
    80401b8c:	a8a9                	j	80401be6 <.LBB228_57+0x20>
    80401b8e:	00158893          	addi	a7,a1,1
    80401b92:	fc000813          	li	a6,-64
    80401b96:	00b67863          	bgeu	a2,a1,80401ba6 <.LBB228_56+0x70>
    80401b9a:	00c507b3          	add	a5,a0,a2
    80401b9e:	00078783          	lb	a5,0(a5)
    80401ba2:	0307de63          	bge	a5,a6,80401bde <.LBB228_57+0x18>
    80401ba6:	fff60793          	addi	a5,a2,-1
    80401baa:	0017b693          	seqz	a3,a5
    80401bae:	00c8c633          	xor	a2,a7,a2
    80401bb2:	00163613          	seqz	a2,a2
    80401bb6:	8ed1                	or	a3,a3,a2
    80401bb8:	863e                	mv	a2,a5
    80401bba:	def1                	beqz	a3,80401b96 <.LBB228_56+0x60>
    80401bbc:	04410313          	addi	t1,sp,68
    80401bc0:	863e                	mv	a2,a5
    80401bc2:	02b61263          	bne	a2,a1,80401be6 <.LBB228_57+0x20>

0000000080401bc6 <.LBB228_57>:
    80401bc6:	00001517          	auipc	a0,0x1
    80401bca:	40250513          	addi	a0,a0,1026 # 80402fc8 <.Lanon.9d4bfc86079e95d674f3cded52b1db19.175>
    80401bce:	02b00593          	li	a1,43
    80401bd2:	863a                	mv	a2,a4
    80401bd4:	fffff097          	auipc	ra,0xfffff
    80401bd8:	a04080e7          	jalr	-1532(ra) # 804005d8 <_ZN4core9panicking5panic17h4214b4eed8d3f37fE>
    80401bdc:	0000                	unimp
    80401bde:	04410313          	addi	t1,sp,68
    80401be2:	feb602e3          	beq	a2,a1,80401bc6 <.LBB228_57>
    80401be6:	00c506b3          	add	a3,a0,a2
    80401bea:	00068783          	lb	a5,0(a3)
    80401bee:	0ff7f393          	andi	t2,a5,255
    80401bf2:	0007c663          	bltz	a5,80401bfe <.LBB228_57+0x38>
    80401bf6:	c29e                	sw	t2,68(sp)
    80401bf8:	00a8                	addi	a0,sp,72
    80401bfa:	4785                	li	a5,1
    80401bfc:	a855                	j	80401cb0 <.LBB228_57+0xea>
    80401bfe:	952e                	add	a0,a0,a1
    80401c00:	00168593          	addi	a1,a3,1
    80401c04:	00a59f63          	bne	a1,a0,80401c22 <.LBB228_57+0x5c>
    80401c08:	4881                	li	a7,0
    80401c0a:	85aa                	mv	a1,a0
    80401c0c:	0e000693          	li	a3,224
    80401c10:	01f3f813          	andi	a6,t2,31
    80401c14:	02d3f363          	bgeu	t2,a3,80401c3a <.LBB228_57+0x74>
    80401c18:	00681513          	slli	a0,a6,0x6
    80401c1c:	011565b3          	or	a1,a0,a7
    80401c20:	a0bd                	j	80401c8e <.LBB228_57+0xc8>
    80401c22:	0016c783          	lbu	a5,1(a3)
    80401c26:	00268593          	addi	a1,a3,2
    80401c2a:	03f7f893          	andi	a7,a5,63
    80401c2e:	0e000693          	li	a3,224
    80401c32:	01f3f813          	andi	a6,t2,31
    80401c36:	fed3e1e3          	bltu	t2,a3,80401c18 <.LBB228_57+0x52>
    80401c3a:	00a59563          	bne	a1,a0,80401c44 <.LBB228_57+0x7e>
    80401c3e:	4581                	li	a1,0
    80401c40:	82aa                	mv	t0,a0
    80401c42:	a039                	j	80401c50 <.LBB228_57+0x8a>
    80401c44:	0005c683          	lbu	a3,0(a1)
    80401c48:	00158293          	addi	t0,a1,1
    80401c4c:	03f6f593          	andi	a1,a3,63
    80401c50:	00689693          	slli	a3,a7,0x6
    80401c54:	0f000793          	li	a5,240
    80401c58:	8dd5                	or	a1,a1,a3
    80401c5a:	00f3e663          	bltu	t2,a5,80401c66 <.LBB228_57+0xa0>
    80401c5e:	00a29863          	bne	t0,a0,80401c6e <.LBB228_57+0xa8>
    80401c62:	4501                	li	a0,0
    80401c64:	a809                	j	80401c76 <.LBB228_57+0xb0>
    80401c66:	00c81513          	slli	a0,a6,0xc
    80401c6a:	8dc9                	or	a1,a1,a0
    80401c6c:	a00d                	j	80401c8e <.LBB228_57+0xc8>
    80401c6e:	0002c503          	lbu	a0,0(t0) # 110000 <BASE_ADDRESS-0x802f0000>
    80401c72:	03f57513          	andi	a0,a0,63
    80401c76:	01281693          	slli	a3,a6,0x12
    80401c7a:	001c07b7          	lui	a5,0x1c0
    80401c7e:	8efd                	and	a3,a3,a5
    80401c80:	059a                	slli	a1,a1,0x6
    80401c82:	8dd5                	or	a1,a1,a3
    80401c84:	8dc9                	or	a1,a1,a0
    80401c86:	00110537          	lui	a0,0x110
    80401c8a:	f2a58ee3          	beq	a1,a0,80401bc6 <.LBB228_57>
    80401c8e:	c2ae                	sw	a1,68(sp)
    80401c90:	00a8                	addi	a0,sp,72
    80401c92:	08000693          	li	a3,128
    80401c96:	4785                	li	a5,1
    80401c98:	00d5ec63          	bltu	a1,a3,80401cb0 <.LBB228_57+0xea>
    80401c9c:	00b5d693          	srli	a3,a1,0xb
    80401ca0:	4789                	li	a5,2
    80401ca2:	c699                	beqz	a3,80401cb0 <.LBB228_57+0xea>
    80401ca4:	81c1                	srli	a1,a1,0x10
    80401ca6:	0015b593          	seqz	a1,a1
    80401caa:	4691                	li	a3,4
    80401cac:	40b687b3          	sub	a5,a3,a1
    80401cb0:	00c785b3          	add	a1,a5,a2
    80401cb4:	e4b2                	sd	a2,72(sp)
    80401cb6:	e8ae                	sd	a1,80(sp)
    80401cb8:	182c                	addi	a1,sp,56
    80401cba:	e52e                	sd	a1,136(sp)

0000000080401cbc <.LBB228_58>:
    80401cbc:	00001597          	auipc	a1,0x1
    80401cc0:	85058593          	addi	a1,a1,-1968 # 8040250c <_ZN4core3fmt3num3imp52_$LT$impl$u20$core..fmt..Display$u20$for$u20$u64$GT$3fmt17h056fc685b1c7ea74E>
    80401cc4:	e92e                	sd	a1,144(sp)
    80401cc6:	ed1a                	sd	t1,152(sp)

0000000080401cc8 <.LBB228_59>:
    80401cc8:	fffff597          	auipc	a1,0xfffff
    80401ccc:	6ca58593          	addi	a1,a1,1738 # 80401392 <_ZN41_$LT$char$u20$as$u20$core..fmt..Debug$GT$3fmt17hebe9382637ae1ba8E>
    80401cd0:	f12e                	sd	a1,160(sp)
    80401cd2:	f52a                	sd	a0,168(sp)

0000000080401cd4 <.LBB228_60>:
    80401cd4:	fffff517          	auipc	a0,0xfffff
    80401cd8:	82450513          	addi	a0,a0,-2012 # 804004f8 <_ZN71_$LT$core..ops..range..Range$LT$Idx$GT$$u20$as$u20$core..fmt..Debug$GT$3fmt17h0c19ef341f8f601cE>
    80401cdc:	f92a                	sd	a0,176(sp)
    80401cde:	0828                	addi	a0,sp,24
    80401ce0:	fd2a                	sd	a0,184(sp)

0000000080401ce2 <.LBB228_61>:
    80401ce2:	00001517          	auipc	a0,0x1
    80401ce6:	c6450513          	addi	a0,a0,-924 # 80402946 <_ZN44_$LT$$RF$T$u20$as$u20$core..fmt..Display$GT$3fmt17h0ab56ae6638005b3E>
    80401cea:	e1aa                	sd	a0,192(sp)
    80401cec:	102c                	addi	a1,sp,40
    80401cee:	e5ae                	sd	a1,200(sp)
    80401cf0:	e9aa                	sd	a0,208(sp)

0000000080401cf2 <.LBB228_62>:
    80401cf2:	00002517          	auipc	a0,0x2
    80401cf6:	85e50513          	addi	a0,a0,-1954 # 80403550 <.Lanon.9d4bfc86079e95d674f3cded52b1db19.321>
    80401cfa:	ecaa                	sd	a0,88(sp)
    80401cfc:	4515                	li	a0,5
    80401cfe:	f0aa                	sd	a0,96(sp)
    80401d00:	f482                	sd	zero,104(sp)
    80401d02:	012c                	addi	a1,sp,136
    80401d04:	fcae                	sd	a1,120(sp)
    80401d06:	e12a                	sd	a0,128(sp)
    80401d08:	08a8                	addi	a0,sp,88
    80401d0a:	85ba                	mv	a1,a4
    80401d0c:	fffff097          	auipc	ra,0xfffff
    80401d10:	938080e7          	jalr	-1736(ra) # 80400644 <_ZN4core9panicking9panic_fmt17ha4e041b5d1f17023E>
	...

0000000080401d16 <_ZN4core7unicode9printable12is_printable17hd298c127375d0caaE>:
    80401d16:	1141                	addi	sp,sp,-16
    80401d18:	e406                	sd	ra,8(sp)
    80401d1a:	0105559b          	srliw	a1,a0,0x10
    80401d1e:	e1f1                	bnez	a1,80401de2 <.LBB244_43+0x4c>
    80401d20:	4581                	li	a1,0
    80401d22:	6641                	lui	a2,0x10
    80401d24:	f006061b          	addiw	a2,a2,-256
    80401d28:	8e69                	and	a2,a2,a0
    80401d2a:	00865313          	srli	t1,a2,0x8

0000000080401d2e <.LBB244_41>:
    80401d2e:	00002717          	auipc	a4,0x2
    80401d32:	8ca70713          	addi	a4,a4,-1846 # 804035f8 <.Lanon.9d4bfc86079e95d674f3cded52b1db19.344>
    80401d36:	12300813          	li	a6,291

0000000080401d3a <.LBB244_42>:
    80401d3a:	00002897          	auipc	a7,0x2
    80401d3e:	91088893          	addi	a7,a7,-1776 # 8040364a <.Lanon.9d4bfc86079e95d674f3cded52b1db19.345>
    80401d42:	05270293          	addi	t0,a4,82
    80401d46:	0ff57793          	andi	a5,a0,255
    80401d4a:	a811                	j	80401d5e <.LBB244_42+0x24>
    80401d4c:	00d335b3          	sltu	a1,t1,a3
    80401d50:	00574633          	xor	a2,a4,t0
    80401d54:	00163613          	seqz	a2,a2
    80401d58:	8e4d                	or	a2,a2,a1
    80401d5a:	859e                	mv	a1,t2
    80401d5c:	ea15                	bnez	a2,80401d90 <.LBB244_42+0x56>
    80401d5e:	00074683          	lbu	a3,0(a4)
    80401d62:	00174603          	lbu	a2,1(a4)
    80401d66:	0709                	addi	a4,a4,2
    80401d68:	00c583b3          	add	t2,a1,a2
    80401d6c:	fe6690e3          	bne	a3,t1,80401d4c <.LBB244_42+0x12>
    80401d70:	1eb3e063          	bltu	t2,a1,80401f50 <.LBB244_47>
    80401d74:	1f03f963          	bgeu	t2,a6,80401f66 <.LBB244_48>
    80401d78:	95c6                	add	a1,a1,a7
    80401d7a:	ca01                	beqz	a2,80401d8a <.LBB244_42+0x50>
    80401d7c:	0005c683          	lbu	a3,0(a1)
    80401d80:	0585                	addi	a1,a1,1
    80401d82:	167d                	addi	a2,a2,-1
    80401d84:	fef69be3          	bne	a3,a5,80401d7a <.LBB244_42+0x40>
    80401d88:	a26d                	j	80401f32 <.LBB244_46+0xd4>
    80401d8a:	859e                	mv	a1,t2
    80401d8c:	fc5719e3          	bne	a4,t0,80401d5e <.LBB244_42+0x24>
    80401d90:	65c1                	lui	a1,0x10
    80401d92:	35fd                	addiw	a1,a1,-1
    80401d94:	8de9                	and	a1,a1,a0

0000000080401d96 <.LBB244_43>:
    80401d96:	00002717          	auipc	a4,0x2
    80401d9a:	9d670713          	addi	a4,a4,-1578 # 8040376c <.Lanon.9d4bfc86079e95d674f3cded52b1db19.346>
    80401d9e:	4505                	li	a0,1
    80401da0:	587d                	li	a6,-1
    80401da2:	13570693          	addi	a3,a4,309
    80401da6:	00070783          	lb	a5,0(a4)
    80401daa:	00170613          	addi	a2,a4,1
    80401dae:	00f85963          	bge	a6,a5,80401dc0 <.LBB244_43+0x2a>
    80401db2:	0ff7f793          	andi	a5,a5,255
    80401db6:	8732                	mv	a4,a2
    80401db8:	9d9d                	subw	a1,a1,a5
    80401dba:	0005df63          	bgez	a1,80401dd8 <.LBB244_43+0x42>
    80401dbe:	aa9d                	j	80401f34 <.LBB244_46+0xd6>
    80401dc0:	1cd60663          	beq	a2,a3,80401f8c <.LBB244_50>
    80401dc4:	00174603          	lbu	a2,1(a4)
    80401dc8:	07f7f793          	andi	a5,a5,127
    80401dcc:	07a2                	slli	a5,a5,0x8
    80401dce:	0709                	addi	a4,a4,2
    80401dd0:	8fd1                	or	a5,a5,a2
    80401dd2:	9d9d                	subw	a1,a1,a5
    80401dd4:	1605c063          	bltz	a1,80401f34 <.LBB244_46+0xd6>
    80401dd8:	00154513          	xori	a0,a0,1
    80401ddc:	fcd715e3          	bne	a4,a3,80401da6 <.LBB244_43+0x10>
    80401de0:	aa91                	j	80401f34 <.LBB244_46+0xd6>
    80401de2:	0115559b          	srliw	a1,a0,0x11
    80401de6:	e1f1                	bnez	a1,80401eaa <.LBB244_46+0x4c>
    80401de8:	4581                	li	a1,0
    80401dea:	6641                	lui	a2,0x10
    80401dec:	f006061b          	addiw	a2,a2,-256
    80401df0:	8e69                	and	a2,a2,a0
    80401df2:	00865313          	srli	t1,a2,0x8

0000000080401df6 <.LBB244_44>:
    80401df6:	00002717          	auipc	a4,0x2
    80401dfa:	aab70713          	addi	a4,a4,-1365 # 804038a1 <.Lanon.9d4bfc86079e95d674f3cded52b1db19.347>
    80401dfe:	0b000813          	li	a6,176

0000000080401e02 <.LBB244_45>:
    80401e02:	00002897          	auipc	a7,0x2
    80401e06:	aeb88893          	addi	a7,a7,-1301 # 804038ed <.Lanon.9d4bfc86079e95d674f3cded52b1db19.348>
    80401e0a:	04c70293          	addi	t0,a4,76
    80401e0e:	0ff57793          	andi	a5,a0,255
    80401e12:	a811                	j	80401e26 <.LBB244_45+0x24>
    80401e14:	00d335b3          	sltu	a1,t1,a3
    80401e18:	00574633          	xor	a2,a4,t0
    80401e1c:	00163613          	seqz	a2,a2
    80401e20:	8e4d                	or	a2,a2,a1
    80401e22:	859e                	mv	a1,t2
    80401e24:	ea15                	bnez	a2,80401e58 <.LBB244_45+0x56>
    80401e26:	00074683          	lbu	a3,0(a4)
    80401e2a:	00174603          	lbu	a2,1(a4)
    80401e2e:	0709                	addi	a4,a4,2
    80401e30:	00c583b3          	add	t2,a1,a2
    80401e34:	fe6690e3          	bne	a3,t1,80401e14 <.LBB244_45+0x12>
    80401e38:	10b3ec63          	bltu	t2,a1,80401f50 <.LBB244_47>
    80401e3c:	1303fc63          	bgeu	t2,a6,80401f74 <.LBB244_49>
    80401e40:	95c6                	add	a1,a1,a7
    80401e42:	ca01                	beqz	a2,80401e52 <.LBB244_45+0x50>
    80401e44:	0005c683          	lbu	a3,0(a1) # 10000 <BASE_ADDRESS-0x803f0000>
    80401e48:	0585                	addi	a1,a1,1
    80401e4a:	167d                	addi	a2,a2,-1
    80401e4c:	fef69be3          	bne	a3,a5,80401e42 <.LBB244_45+0x40>
    80401e50:	a0cd                	j	80401f32 <.LBB244_46+0xd4>
    80401e52:	859e                	mv	a1,t2
    80401e54:	fc5719e3          	bne	a4,t0,80401e26 <.LBB244_45+0x24>
    80401e58:	65c1                	lui	a1,0x10
    80401e5a:	35fd                	addiw	a1,a1,-1
    80401e5c:	8de9                	and	a1,a1,a0

0000000080401e5e <.LBB244_46>:
    80401e5e:	00002717          	auipc	a4,0x2
    80401e62:	b3e70713          	addi	a4,a4,-1218 # 8040399c <.Lanon.9d4bfc86079e95d674f3cded52b1db19.349>
    80401e66:	4505                	li	a0,1
    80401e68:	587d                	li	a6,-1
    80401e6a:	1a370693          	addi	a3,a4,419
    80401e6e:	00070783          	lb	a5,0(a4)
    80401e72:	00170613          	addi	a2,a4,1
    80401e76:	00f85963          	bge	a6,a5,80401e88 <.LBB244_46+0x2a>
    80401e7a:	0ff7f793          	andi	a5,a5,255
    80401e7e:	8732                	mv	a4,a2
    80401e80:	9d9d                	subw	a1,a1,a5
    80401e82:	0005df63          	bgez	a1,80401ea0 <.LBB244_46+0x42>
    80401e86:	a07d                	j	80401f34 <.LBB244_46+0xd6>
    80401e88:	10d60263          	beq	a2,a3,80401f8c <.LBB244_50>
    80401e8c:	00174603          	lbu	a2,1(a4)
    80401e90:	07f7f793          	andi	a5,a5,127
    80401e94:	07a2                	slli	a5,a5,0x8
    80401e96:	0709                	addi	a4,a4,2
    80401e98:	8fd1                	or	a5,a5,a2
    80401e9a:	9d9d                	subw	a1,a1,a5
    80401e9c:	0805cc63          	bltz	a1,80401f34 <.LBB244_46+0xd6>
    80401ea0:	00154513          	xori	a0,a0,1
    80401ea4:	fcd715e3          	bne	a4,a3,80401e6e <.LBB244_46+0x10>
    80401ea8:	a071                	j	80401f34 <.LBB244_46+0xd6>
    80401eaa:	fffd65b7          	lui	a1,0xfffd6
    80401eae:	9225859b          	addiw	a1,a1,-1758
    80401eb2:	9da9                	addw	a1,a1,a0
    80401eb4:	0225b593          	sltiu	a1,a1,34
    80401eb8:	fffd5637          	lui	a2,0xfffd5
    80401ebc:	8cb6061b          	addiw	a2,a2,-1845
    80401ec0:	9e29                	addw	a2,a2,a0
    80401ec2:	00b63613          	sltiu	a2,a2,11
    80401ec6:	8dd1                	or	a1,a1,a2
    80401ec8:	00200637          	lui	a2,0x200
    80401ecc:	3679                	addiw	a2,a2,-2
    80401ece:	8e69                	and	a2,a2,a0
    80401ed0:	0002c6b7          	lui	a3,0x2c
    80401ed4:	81e6869b          	addiw	a3,a3,-2018
    80401ed8:	8e35                	xor	a2,a2,a3
    80401eda:	00163613          	seqz	a2,a2
    80401ede:	8dd1                	or	a1,a1,a2
    80401ee0:	fffd3637          	lui	a2,0xfffd3
    80401ee4:	15e6061b          	addiw	a2,a2,350
    80401ee8:	9e29                	addw	a2,a2,a0
    80401eea:	00e63613          	sltiu	a2,a2,14
    80401eee:	8dd1                	or	a1,a1,a2
    80401ef0:	fffd1637          	lui	a2,0xfffd1
    80401ef4:	41f6061b          	addiw	a2,a2,1055
    80401ef8:	9e29                	addw	a2,a2,a0
    80401efa:	6685                	lui	a3,0x1
    80401efc:	c1f6869b          	addiw	a3,a3,-993
    80401f00:	00d63633          	sltu	a2,a2,a3
    80401f04:	8dd1                	or	a1,a1,a2
    80401f06:	fffd0637          	lui	a2,0xfffd0
    80401f0a:	5e26061b          	addiw	a2,a2,1506
    80401f0e:	9e29                	addw	a2,a2,a0
    80401f10:	5e263613          	sltiu	a2,a2,1506
    80401f14:	8dd1                	or	a1,a1,a2
    80401f16:	fffcf637          	lui	a2,0xfffcf
    80401f1a:	cb56061b          	addiw	a2,a2,-843
    80401f1e:	9e29                	addw	a2,a2,a0
    80401f20:	000af6b7          	lui	a3,0xaf
    80401f24:	db56869b          	addiw	a3,a3,-587
    80401f28:	00d63633          	sltu	a2,a2,a3
    80401f2c:	8dd1                	or	a1,a1,a2
    80401f2e:	8985                	andi	a1,a1,1
    80401f30:	c591                	beqz	a1,80401f3c <.LBB244_46+0xde>
    80401f32:	4501                	li	a0,0
    80401f34:	8905                	andi	a0,a0,1
    80401f36:	60a2                	ld	ra,8(sp)
    80401f38:	0141                	addi	sp,sp,16
    80401f3a:	8082                	ret
    80401f3c:	2501                	sext.w	a0,a0
    80401f3e:	000e05b7          	lui	a1,0xe0
    80401f42:	1f05859b          	addiw	a1,a1,496
    80401f46:	00b53533          	sltu	a0,a0,a1
    80401f4a:	60a2                	ld	ra,8(sp)
    80401f4c:	0141                	addi	sp,sp,16
    80401f4e:	8082                	ret

0000000080401f50 <.LBB244_47>:
    80401f50:	00001617          	auipc	a2,0x1
    80401f54:	67860613          	addi	a2,a2,1656 # 804035c8 <.Lanon.9d4bfc86079e95d674f3cded52b1db19.342>
    80401f58:	852e                	mv	a0,a1
    80401f5a:	859e                	mv	a1,t2
    80401f5c:	00000097          	auipc	ra,0x0
    80401f60:	832080e7          	jalr	-1998(ra) # 8040178e <_ZN4core5slice5index22slice_index_order_fail17h17f07731262cfc7fE>
	...

0000000080401f66 <.LBB244_48>:
    80401f66:	00001617          	auipc	a2,0x1
    80401f6a:	66260613          	addi	a2,a2,1634 # 804035c8 <.Lanon.9d4bfc86079e95d674f3cded52b1db19.342>
    80401f6e:	12200593          	li	a1,290
    80401f72:	a039                	j	80401f80 <.LBB244_49+0xc>

0000000080401f74 <.LBB244_49>:
    80401f74:	00001617          	auipc	a2,0x1
    80401f78:	65460613          	addi	a2,a2,1620 # 804035c8 <.Lanon.9d4bfc86079e95d674f3cded52b1db19.342>
    80401f7c:	0af00593          	li	a1,175
    80401f80:	851e                	mv	a0,t2
    80401f82:	fffff097          	auipc	ra,0xfffff
    80401f86:	7cc080e7          	jalr	1996(ra) # 8040174e <_ZN4core5slice5index24slice_end_index_len_fail17h397499141087200aE>
	...

0000000080401f8c <.LBB244_50>:
    80401f8c:	00001517          	auipc	a0,0x1
    80401f90:	03c50513          	addi	a0,a0,60 # 80402fc8 <.Lanon.9d4bfc86079e95d674f3cded52b1db19.175>

0000000080401f94 <.LBB244_51>:
    80401f94:	00001617          	auipc	a2,0x1
    80401f98:	64c60613          	addi	a2,a2,1612 # 804035e0 <.Lanon.9d4bfc86079e95d674f3cded52b1db19.343>
    80401f9c:	02b00593          	li	a1,43
    80401fa0:	ffffe097          	auipc	ra,0xffffe
    80401fa4:	638080e7          	jalr	1592(ra) # 804005d8 <_ZN4core9panicking5panic17h4214b4eed8d3f37fE>
	...

0000000080401faa <_ZN4core3fmt3num53_$LT$impl$u20$core..fmt..LowerHex$u20$for$u20$i64$GT$3fmt17he21e11f173f31e15E>:
    80401faa:	7175                	addi	sp,sp,-144
    80401fac:	e506                	sd	ra,136(sp)
    80401fae:	6114                	ld	a3,0(a0)
    80401fb0:	852e                	mv	a0,a1
    80401fb2:	4581                	li	a1,0
    80401fb4:	00810813          	addi	a6,sp,8
    80401fb8:	4729                	li	a4,10
    80401fba:	a039                	j	80401fc8 <_ZN4core3fmt3num53_$LT$impl$u20$core..fmt..LowerHex$u20$for$u20$i64$GT$3fmt17he21e11f173f31e15E+0x1e>
    80401fbc:	05760613          	addi	a2,a2,87
    80401fc0:	06c78fa3          	sb	a2,127(a5) # 1c007f <BASE_ADDRESS-0x8023ff81>
    80401fc4:	15fd                	addi	a1,a1,-1
    80401fc6:	ce91                	beqz	a3,80401fe2 <_ZN4core3fmt3num53_$LT$impl$u20$core..fmt..LowerHex$u20$for$u20$i64$GT$3fmt17he21e11f173f31e15E+0x38>
    80401fc8:	00b807b3          	add	a5,a6,a1
    80401fcc:	00f6f613          	andi	a2,a3,15
    80401fd0:	8291                	srli	a3,a3,0x4
    80401fd2:	fee675e3          	bgeu	a2,a4,80401fbc <_ZN4core3fmt3num53_$LT$impl$u20$core..fmt..LowerHex$u20$for$u20$i64$GT$3fmt17he21e11f173f31e15E+0x12>
    80401fd6:	03066613          	ori	a2,a2,48
    80401fda:	06c78fa3          	sb	a2,127(a5)
    80401fde:	15fd                	addi	a1,a1,-1
    80401fe0:	f6e5                	bnez	a3,80401fc8 <_ZN4core3fmt3num53_$LT$impl$u20$core..fmt..LowerHex$u20$for$u20$i64$GT$3fmt17he21e11f173f31e15E+0x1e>
    80401fe2:	08058693          	addi	a3,a1,128 # e0080 <BASE_ADDRESS-0x8031ff80>
    80401fe6:	08100613          	li	a2,129
    80401fea:	02c6f463          	bgeu	a3,a2,80402012 <.LBB456_8>
    80401fee:	40b007b3          	neg	a5,a1
    80401ff2:	95c2                	add	a1,a1,a6
    80401ff4:	08058713          	addi	a4,a1,128

0000000080401ff8 <.LBB456_7>:
    80401ff8:	00001617          	auipc	a2,0x1
    80401ffc:	1a860613          	addi	a2,a2,424 # 804031a0 <.Lanon.9d4bfc86079e95d674f3cded52b1db19.224>
    80402000:	4585                	li	a1,1
    80402002:	4689                	li	a3,2
    80402004:	fffff097          	auipc	ra,0xfffff
    80402008:	e0e080e7          	jalr	-498(ra) # 80400e12 <_ZN4core3fmt9Formatter12pad_integral17h005290bf5c80af87E>
    8040200c:	60aa                	ld	ra,136(sp)
    8040200e:	6149                	addi	sp,sp,144
    80402010:	8082                	ret

0000000080402012 <.LBB456_8>:
    80402012:	00001617          	auipc	a2,0x1
    80402016:	17660613          	addi	a2,a2,374 # 80403188 <.Lanon.9d4bfc86079e95d674f3cded52b1db19.221>
    8040201a:	08000593          	li	a1,128
    8040201e:	8536                	mv	a0,a3
    80402020:	fffff097          	auipc	ra,0xfffff
    80402024:	6ee080e7          	jalr	1774(ra) # 8040170e <_ZN4core5slice5index26slice_start_index_len_fail17h43348ae2a84bde06E>
	...

000000008040202a <_ZN4core3fmt3num53_$LT$impl$u20$core..fmt..UpperHex$u20$for$u20$i64$GT$3fmt17h7a5b1e38fb0bc5b9E>:
    8040202a:	7175                	addi	sp,sp,-144
    8040202c:	e506                	sd	ra,136(sp)
    8040202e:	6114                	ld	a3,0(a0)
    80402030:	852e                	mv	a0,a1
    80402032:	4581                	li	a1,0
    80402034:	00810813          	addi	a6,sp,8
    80402038:	4729                	li	a4,10
    8040203a:	a039                	j	80402048 <_ZN4core3fmt3num53_$LT$impl$u20$core..fmt..UpperHex$u20$for$u20$i64$GT$3fmt17h7a5b1e38fb0bc5b9E+0x1e>
    8040203c:	03760613          	addi	a2,a2,55
    80402040:	06c78fa3          	sb	a2,127(a5)
    80402044:	15fd                	addi	a1,a1,-1
    80402046:	ce91                	beqz	a3,80402062 <_ZN4core3fmt3num53_$LT$impl$u20$core..fmt..UpperHex$u20$for$u20$i64$GT$3fmt17h7a5b1e38fb0bc5b9E+0x38>
    80402048:	00b807b3          	add	a5,a6,a1
    8040204c:	00f6f613          	andi	a2,a3,15
    80402050:	8291                	srli	a3,a3,0x4
    80402052:	fee675e3          	bgeu	a2,a4,8040203c <_ZN4core3fmt3num53_$LT$impl$u20$core..fmt..UpperHex$u20$for$u20$i64$GT$3fmt17h7a5b1e38fb0bc5b9E+0x12>
    80402056:	03066613          	ori	a2,a2,48
    8040205a:	06c78fa3          	sb	a2,127(a5)
    8040205e:	15fd                	addi	a1,a1,-1
    80402060:	f6e5                	bnez	a3,80402048 <_ZN4core3fmt3num53_$LT$impl$u20$core..fmt..UpperHex$u20$for$u20$i64$GT$3fmt17h7a5b1e38fb0bc5b9E+0x1e>
    80402062:	08058693          	addi	a3,a1,128
    80402066:	08100613          	li	a2,129
    8040206a:	02c6f463          	bgeu	a3,a2,80402092 <.LBB457_8>
    8040206e:	40b007b3          	neg	a5,a1
    80402072:	95c2                	add	a1,a1,a6
    80402074:	08058713          	addi	a4,a1,128

0000000080402078 <.LBB457_7>:
    80402078:	00001617          	auipc	a2,0x1
    8040207c:	12860613          	addi	a2,a2,296 # 804031a0 <.Lanon.9d4bfc86079e95d674f3cded52b1db19.224>
    80402080:	4585                	li	a1,1
    80402082:	4689                	li	a3,2
    80402084:	fffff097          	auipc	ra,0xfffff
    80402088:	d8e080e7          	jalr	-626(ra) # 80400e12 <_ZN4core3fmt9Formatter12pad_integral17h005290bf5c80af87E>
    8040208c:	60aa                	ld	ra,136(sp)
    8040208e:	6149                	addi	sp,sp,144
    80402090:	8082                	ret

0000000080402092 <.LBB457_8>:
    80402092:	00001617          	auipc	a2,0x1
    80402096:	0f660613          	addi	a2,a2,246 # 80403188 <.Lanon.9d4bfc86079e95d674f3cded52b1db19.221>
    8040209a:	08000593          	li	a1,128
    8040209e:	8536                	mv	a0,a3
    804020a0:	fffff097          	auipc	ra,0xfffff
    804020a4:	66e080e7          	jalr	1646(ra) # 8040170e <_ZN4core5slice5index26slice_start_index_len_fail17h43348ae2a84bde06E>
	...

00000000804020aa <_ZN4core3fmt3num52_$LT$impl$u20$core..fmt..Debug$u20$for$u20$usize$GT$3fmt17h65700e50f045d1fbE>:
    804020aa:	7175                	addi	sp,sp,-144
    804020ac:	e506                	sd	ra,136(sp)
    804020ae:	882e                	mv	a6,a1
    804020b0:	0305e583          	lwu	a1,48(a1)
    804020b4:	0105f613          	andi	a2,a1,16
    804020b8:	ea19                	bnez	a2,804020ce <_ZN4core3fmt3num52_$LT$impl$u20$core..fmt..Debug$u20$for$u20$usize$GT$3fmt17h65700e50f045d1fbE+0x24>
    804020ba:	0205f593          	andi	a1,a1,32
    804020be:	e1a9                	bnez	a1,80402100 <_ZN4core3fmt3num52_$LT$impl$u20$core..fmt..Debug$u20$for$u20$usize$GT$3fmt17h65700e50f045d1fbE+0x56>
    804020c0:	85c2                	mv	a1,a6
    804020c2:	60aa                	ld	ra,136(sp)
    804020c4:	6149                	addi	sp,sp,144
    804020c6:	00000317          	auipc	t1,0x0
    804020ca:	44630067          	jr	1094(t1) # 8040250c <_ZN4core3fmt3num3imp52_$LT$impl$u20$core..fmt..Display$u20$for$u20$u64$GT$3fmt17h056fc685b1c7ea74E>
    804020ce:	6108                	ld	a0,0(a0)
    804020d0:	4581                	li	a1,0
    804020d2:	0030                	addi	a2,sp,8
    804020d4:	46a9                	li	a3,10
    804020d6:	a039                	j	804020e4 <_ZN4core3fmt3num52_$LT$impl$u20$core..fmt..Debug$u20$for$u20$usize$GT$3fmt17h65700e50f045d1fbE+0x3a>
    804020d8:	05778793          	addi	a5,a5,87
    804020dc:	06f70fa3          	sb	a5,127(a4)
    804020e0:	15fd                	addi	a1,a1,-1
    804020e2:	c539                	beqz	a0,80402130 <_ZN4core3fmt3num52_$LT$impl$u20$core..fmt..Debug$u20$for$u20$usize$GT$3fmt17h65700e50f045d1fbE+0x86>
    804020e4:	00b60733          	add	a4,a2,a1
    804020e8:	00f57793          	andi	a5,a0,15
    804020ec:	8111                	srli	a0,a0,0x4
    804020ee:	fed7f5e3          	bgeu	a5,a3,804020d8 <_ZN4core3fmt3num52_$LT$impl$u20$core..fmt..Debug$u20$for$u20$usize$GT$3fmt17h65700e50f045d1fbE+0x2e>
    804020f2:	0307e793          	ori	a5,a5,48
    804020f6:	06f70fa3          	sb	a5,127(a4)
    804020fa:	15fd                	addi	a1,a1,-1
    804020fc:	f565                	bnez	a0,804020e4 <_ZN4core3fmt3num52_$LT$impl$u20$core..fmt..Debug$u20$for$u20$usize$GT$3fmt17h65700e50f045d1fbE+0x3a>
    804020fe:	a80d                	j	80402130 <_ZN4core3fmt3num52_$LT$impl$u20$core..fmt..Debug$u20$for$u20$usize$GT$3fmt17h65700e50f045d1fbE+0x86>
    80402100:	6108                	ld	a0,0(a0)
    80402102:	4581                	li	a1,0
    80402104:	0030                	addi	a2,sp,8
    80402106:	46a9                	li	a3,10
    80402108:	a039                	j	80402116 <_ZN4core3fmt3num52_$LT$impl$u20$core..fmt..Debug$u20$for$u20$usize$GT$3fmt17h65700e50f045d1fbE+0x6c>
    8040210a:	03778793          	addi	a5,a5,55
    8040210e:	06f70fa3          	sb	a5,127(a4)
    80402112:	15fd                	addi	a1,a1,-1
    80402114:	cd11                	beqz	a0,80402130 <_ZN4core3fmt3num52_$LT$impl$u20$core..fmt..Debug$u20$for$u20$usize$GT$3fmt17h65700e50f045d1fbE+0x86>
    80402116:	00b60733          	add	a4,a2,a1
    8040211a:	00f57793          	andi	a5,a0,15
    8040211e:	8111                	srli	a0,a0,0x4
    80402120:	fed7f5e3          	bgeu	a5,a3,8040210a <_ZN4core3fmt3num52_$LT$impl$u20$core..fmt..Debug$u20$for$u20$usize$GT$3fmt17h65700e50f045d1fbE+0x60>
    80402124:	0307e793          	ori	a5,a5,48
    80402128:	06f70fa3          	sb	a5,127(a4)
    8040212c:	15fd                	addi	a1,a1,-1
    8040212e:	f565                	bnez	a0,80402116 <_ZN4core3fmt3num52_$LT$impl$u20$core..fmt..Debug$u20$for$u20$usize$GT$3fmt17h65700e50f045d1fbE+0x6c>
    80402130:	08058513          	addi	a0,a1,128
    80402134:	08100693          	li	a3,129
    80402138:	02d57663          	bgeu	a0,a3,80402164 <.LBB462_15>
    8040213c:	40b007b3          	neg	a5,a1
    80402140:	00b60533          	add	a0,a2,a1
    80402144:	08050713          	addi	a4,a0,128

0000000080402148 <.LBB462_14>:
    80402148:	00001617          	auipc	a2,0x1
    8040214c:	05860613          	addi	a2,a2,88 # 804031a0 <.Lanon.9d4bfc86079e95d674f3cded52b1db19.224>
    80402150:	4585                	li	a1,1
    80402152:	4689                	li	a3,2
    80402154:	8542                	mv	a0,a6
    80402156:	fffff097          	auipc	ra,0xfffff
    8040215a:	cbc080e7          	jalr	-836(ra) # 80400e12 <_ZN4core3fmt9Formatter12pad_integral17h005290bf5c80af87E>
    8040215e:	60aa                	ld	ra,136(sp)
    80402160:	6149                	addi	sp,sp,144
    80402162:	8082                	ret

0000000080402164 <.LBB462_15>:
    80402164:	00001617          	auipc	a2,0x1
    80402168:	02460613          	addi	a2,a2,36 # 80403188 <.Lanon.9d4bfc86079e95d674f3cded52b1db19.221>
    8040216c:	08000593          	li	a1,128
    80402170:	fffff097          	auipc	ra,0xfffff
    80402174:	59e080e7          	jalr	1438(ra) # 8040170e <_ZN4core5slice5index26slice_start_index_len_fail17h43348ae2a84bde06E>
	...

000000008040217a <_ZN4core3fmt3num3imp52_$LT$impl$u20$core..fmt..Display$u20$for$u20$u32$GT$3fmt17h4f29d8511ba5e68eE>:
    8040217a:	715d                	addi	sp,sp,-80
    8040217c:	e486                	sd	ra,72(sp)
    8040217e:	e0a2                	sd	s0,64(sp)
    80402180:	fc26                	sd	s1,56(sp)
    80402182:	f84a                	sd	s2,48(sp)
